 commqpsktxrx_cgxe

 Timestamp is 67150888 (Sun Oct 20 16:41:28 2024)

 Preferred load address is 0000000180000000

 Start         Length     Name                   Class
 0001:00000000 00018b70H .text$mn                CODE
 0001:00018b70 00000036H .text$mn$00             CODE
 0001:00018ba6 00000092H .text$x                 CODE
 0002:00000000 00000440H .idata$5                DATA
 0002:00000440 00000028H .00cfg                  DATA
 0002:00000468 00000008H .CRT$XCA                DATA
 0002:00000470 00000008H .CRT$XCZ                DATA
 0002:00000478 00000008H .CRT$XIA                DATA
 0002:00000480 00000008H .CRT$XIZ                DATA
 0002:00000488 00000008H .CRT$XPA                DATA
 0002:00000490 00000008H .CRT$XPZ                DATA
 0002:00000498 00000008H .CRT$XTA                DATA
 0002:000004a0 00000010H .CRT$XTZ                DATA
 0002:000004a8 00000000H .gehcont$y              DATA
 0002:000004a8 00000000H .gfids$y                DATA
 0002:000004b0 000007d0H .rdata                  DATA
 0002:00000c80 00000008H .rdata$CastGuardVftablesA DATA
 0002:00000c88 00000008H .rdata$CastGuardVftablesC DATA
 0002:00000c90 00000180H .rdata$voltmd           DATA
 0002:00000e10 00000278H .rdata$zzzdbg           DATA
 0002:00001088 00000008H .rtc$IAA                DATA
 0002:00001090 00000008H .rtc$IZZ                DATA
 0002:00001098 00000008H .rtc$TAA                DATA
 0002:000010a0 00000008H .rtc$TZZ                DATA
 0002:000010a8 00000b38H .xdata                  DATA
 0002:00001be0 0000007cH .edata                  DATA
 0002:00001c5c 00000104H .idata$2                DATA
 0002:00001d60 00000018H .idata$3                DATA
 0002:00001d78 00000440H .idata$4                DATA
 0002:000021b8 00000b98H .idata$6                DATA
 0003:00000000 00009a90H .data                   DATA
 0003:00009a90 00000650H .bss                    DATA
 0004:00000000 00000cf0H .pdata                  DATA

  Address         Publics by Value              Rva+Base               Lib:Object

 0000:00000000       __guard_fids_table         0000000000000000     <absolute>
 0000:00000000       __arm64x_redirection_metadata_count 0000000000000000     <absolute>
 0000:00000000       __guard_check_icall_a64n_fptr 0000000000000000     <absolute>
 0000:00000000       __guard_longjmp_table      0000000000000000     <absolute>
 0000:00000000       __x64_code_ranges_to_entry_points 0000000000000000     <absolute>
 0000:00000000       __hybrid_auxiliary_iat     0000000000000000     <absolute>
 0000:00000000       __enclave_config           0000000000000000     <absolute>
 0000:00000000       __arm64x_extra_rfe_table_size 0000000000000000     <absolute>
 0000:00000000       ___safe_se_handler_count   0000000000000000     <absolute>
 0000:00000000       __guard_eh_cont_table      0000000000000000     <absolute>
 0000:00000000       __hybrid_auxiliary_iat_copy 0000000000000000     <absolute>
 0000:00000000       __guard_iat_table          0000000000000000     <absolute>
 0000:00000000       __AbsoluteZero             0000000000000000     <absolute>
 0000:00000000       __dynamic_value_reloc_table 0000000000000000     <absolute>
 0000:00000000       __x64_code_ranges_to_entry_points_count 0000000000000000     <absolute>
 0000:00000000       __hybrid_code_map_count    0000000000000000     <absolute>
 0000:00000000       __arm64x_native_entrypoint 0000000000000000     <absolute>
 0000:00000000       __guard_fids_count         0000000000000000     <absolute>
 0000:00000000       __guard_eh_cont_count      0000000000000000     <absolute>
 0000:00000000       __hybrid_code_map          0000000000000000     <absolute>
 0000:00000000       __arm64x_extra_rfe_table   0000000000000000     <absolute>
 0000:00000000       __arm64x_redirection_metadata 0000000000000000     <absolute>
 0000:00000000       __guard_longjmp_count      0000000000000000     <absolute>
 0000:00000000       ___safe_se_handler_table   0000000000000000     <absolute>
 0000:00000000       __guard_iat_count          0000000000000000     <absolute>
 0000:00000100       __guard_flags              0000000000000100     <absolute>
 0000:00000000       __ImageBase                0000000180000000     <linker-defined>
 0001:00000000       mexfilerequiredapiversion  0000000180001000 f   c_mexapi_version.obj
 0001:00000030       cgxe_commqpsktxrx_method_dispatcher 0000000180001030 f   commqpsktxrx_cgxe.obj
 0001:00000140       method_dispatcher_BTWFqGYD8aagFTEBQPdwsF 0000000180001140 f   m_BTWFqGYD8aagFTEBQPdwsF.obj
 0001:00007d60       cgxe_BTWFqGYD8aagFTEBQPdwsF_BuildInfoUpdate 0000000180008d60 f   m_BTWFqGYD8aagFTEBQPdwsF.obj
 0001:00008120       cgxe_BTWFqGYD8aagFTEBQPdwsF_fallback_info 0000000180009120 f   m_BTWFqGYD8aagFTEBQPdwsF.obj
 0001:00008200       method_dispatcher_FpwZVT78uS5A5Xdp3o5d3 0000000180009200 f   m_FpwZVT78uS5A5Xdp3o5d3.obj
 0001:0000e310       cgxe_FpwZVT78uS5A5Xdp3o5d3_BuildInfoUpdate 000000018000f310 f   m_FpwZVT78uS5A5Xdp3o5d3.obj
 0001:0000e5b0       cgxe_FpwZVT78uS5A5Xdp3o5d3_fallback_info 000000018000f5b0 f   m_FpwZVT78uS5A5Xdp3o5d3.obj
 0001:0000e650       mexFunction                000000018000f650 f   commqpsktxrx_cgxe_registry.obj
 0001:000104c0       _ssSetInputPortDirectFeedThroughFcn 00000001800114c0 f   commqpsktxrx_cgxe_registry.obj
 0001:00010630       _ssSetRWorkValueFcn        0000000180011630 f   commqpsktxrx_cgxe_registry.obj
 0001:000106b0       _ssGetRWorkValueFcn        00000001800116b0 f   commqpsktxrx_cgxe_registry.obj
 0001:00010720       _ssSetIWorkValueFcn        0000000180011720 f   commqpsktxrx_cgxe_registry.obj
 0001:000107a0       _ssGetIWorkValueFcn        00000001800117a0 f   commqpsktxrx_cgxe_registry.obj
 0001:00010810       _ssSetPWorkValueFcn        0000000180011810 f   commqpsktxrx_cgxe_registry.obj
 0001:00010890       _ssGetPWorkValueFcn        0000000180011890 f   commqpsktxrx_cgxe_registry.obj
 0001:00010900       _ssGetInputPortSignalFcn   0000000180011900 f   commqpsktxrx_cgxe_registry.obj
 0001:00010c90       _ssGetInputPortBufferDstPortFcn 0000000180011c90 f   commqpsktxrx_cgxe_registry.obj
 0001:00010d10       _ssGetInputPortSignalPtrsFcn 0000000180011d10 f   commqpsktxrx_cgxe_registry.obj
 0001:000110a0       ssGetParameterTuningCompliance 00000001800120a0 f   commqpsktxrx_cgxe_registry.obj
 0001:00011110       _ssReadInputStringFcn      0000000180012110 f   commqpsktxrx_cgxe_registry.obj
 0001:00011180       ssGetDTypeIdFromMxArray    0000000180012180 f   commqpsktxrx_cgxe_registry.obj
 0001:000112a0       ssWriteRTWMx2dMatParam     00000001800122a0 f   commqpsktxrx_cgxe_registry.obj
 0001:00011330       ssWriteRTWMxVectParam      0000000180012330 f   commqpsktxrx_cgxe_registry.obj
 0001:000113b0       ssWriteRTWParameters       00000001800123b0 f   commqpsktxrx_cgxe_registry.obj
 0001:00011970       ssWriteRTWParamSettings    0000000180012970 f   commqpsktxrx_cgxe_registry.obj
 0001:00012060       ssWriteRTWStr              0000000180013060 f   commqpsktxrx_cgxe_registry.obj
 0001:000120c0       ssWriteRTWWorkVect         00000001800130c0 f   commqpsktxrx_cgxe_registry.obj
 0001:00012620       ssWarning                  0000000180013620 f   commqpsktxrx_cgxe_registry.obj
 0001:00012710       ssGetRootSS                0000000180013710 f   commqpsktxrx_cgxe_registry.obj
 0001:000127d0       ssGetParentSS              00000001800137d0 f   commqpsktxrx_cgxe_registry.obj
 0001:00012890       ssWriteRTWNameValuePair    0000000180013890 f   commqpsktxrx_cgxe_registry.obj
 0001:00012d90       _ssSetInputPortMatrixDimensions 0000000180013d90 f   commqpsktxrx_cgxe_registry.obj
 0001:00012ee0       _ssSetOutputPortMatrixDimensions 0000000180013ee0 f   commqpsktxrx_cgxe_registry.obj
 0001:00013030       _ssSetInputPortVectorDimension 0000000180014030 f   commqpsktxrx_cgxe_registry.obj
 0001:000130e0       _ssSetOutputPortVectorDimension 00000001800140e0 f   commqpsktxrx_cgxe_registry.obj
 0001:00013190       ssIsRunTimeParamTunable    0000000180014190 f   commqpsktxrx_cgxe_registry.obj
 0001:00013200       ssGetSFuncBlockHandle      0000000180014200 f   commqpsktxrx_cgxe_registry.obj
 0001:00013270       _ssGetCallSystemNumFcnCallDestinations 0000000180014270 f   commqpsktxrx_cgxe_registry.obj
 0001:000132e0       _ssGetCurrentInputPortWidth 00000001800142e0 f   commqpsktxrx_cgxe_registry.obj
 0001:00013420       _ssGetCurrentOutputPortWidth 0000000180014420 f   commqpsktxrx_cgxe_registry.obj
 0001:00013560       ssGetIsZeroCrossControlDisabled 0000000180014560 f   commqpsktxrx_cgxe_registry.obj
 0001:000135d0       ssSetIsInputPortUsedForContZcSignal 00000001800145d0 f   commqpsktxrx_cgxe_registry.obj
 0001:00013640       ssSetZcSignalIsZcElementDisc 0000000180014640 f   commqpsktxrx_cgxe_registry.obj
 0001:000136f0       ssSetZcSignalName          00000001800146f0 f   commqpsktxrx_cgxe_registry.obj
 0001:00013760       ssSetZcSignalWidth         0000000180014760 f   commqpsktxrx_cgxe_registry.obj
 0001:000137d0       ssSetZcSignalZcEventType   00000001800147d0 f   commqpsktxrx_cgxe_registry.obj
 0001:00013840       ssSetZcSignalType          0000000180014840 f   commqpsktxrx_cgxe_registry.obj
 0001:000138b0       ssSetZcSignalZcTol         00000001800148b0 f   commqpsktxrx_cgxe_registry.obj
 0001:00013920       ssSetZcSignalNeedsEventNotification 0000000180014920 f   commqpsktxrx_cgxe_registry.obj
 0001:00013990       ssCreateAndAddZcSignalInfo 0000000180014990 f   commqpsktxrx_cgxe_registry.obj
 0001:00013a00       ssCloneAndAddZcSignalInfo  0000000180014a00 f   commqpsktxrx_cgxe_registry.obj
 0001:00013a70       ssGetNumZcSignals          0000000180014a70 f   commqpsktxrx_cgxe_registry.obj
 0001:00013ae0       ssGetZcSignalVector        0000000180014ae0 f   commqpsktxrx_cgxe_registry.obj
 0001:00013b50       ssGetZcSignalName          0000000180014b50 f   commqpsktxrx_cgxe_registry.obj
 0001:00013bc0       ssGetZcSignalWidth         0000000180014bc0 f   commqpsktxrx_cgxe_registry.obj
 0001:00013c30       ssGetZcSignalZcEventType   0000000180014c30 f   commqpsktxrx_cgxe_registry.obj
 0001:00013ca0       ssGetZcSignalZcEvents      0000000180014ca0 f   commqpsktxrx_cgxe_registry.obj
 0001:00013d10       ssGetZcSignalType          0000000180014d10 f   commqpsktxrx_cgxe_registry.obj
 0001:00013d80       ssGetZcSignalZcTol         0000000180014d80 f   commqpsktxrx_cgxe_registry.obj
 0001:00013e00       ssGetZcSignalNeedsEventNotification 0000000180014e00 f   commqpsktxrx_cgxe_registry.obj
 0001:00013e70       ssGetZcSignalIsZcElementDisc 0000000180014e70 f   commqpsktxrx_cgxe_registry.obj
 0001:00013f10       ssGetIsInputPortElementContinuous 0000000180014f10 f   commqpsktxrx_cgxe_registry.obj
 0001:00013fb0       _ssGetAbsTol               0000000180014fb0 f   commqpsktxrx_cgxe_registry.obj
 0001:00014020       _ssSetStateAbsTol          0000000180015020 f   commqpsktxrx_cgxe_registry.obj
 0001:00014100       _ssSetInputPortReusableFcn 0000000180015100 f   commqpsktxrx_cgxe_registry.obj
 0001:00014200       _ssSetOutputPortReusableFcn 0000000180015200 f   commqpsktxrx_cgxe_registry.obj
 0001:00014300       _ssSetSymbolicDimsSupport  0000000180015300 f   commqpsktxrx_cgxe_registry.obj
 0001:00014370       _ssRegisterSymbolicDimsExpr 0000000180015370 f   commqpsktxrx_cgxe_registry.obj
 0001:000143f0       _ssRegisterSymbolicDimsMATLABExpr 00000001800153f0 f   commqpsktxrx_cgxe_registry.obj
 0001:00014480       _ssRegisterSymbolicDims    0000000180015480 f   commqpsktxrx_cgxe_registry.obj
 0001:00014520       _ssRegisterSymbolicDimsString 0000000180015520 f   commqpsktxrx_cgxe_registry.obj
 0001:000145a0       _ssRegisterSymbolicDimsIntValue 00000001800155a0 f   commqpsktxrx_cgxe_registry.obj
 0001:00014610       _ssRegisterSymbolicEqualRelation 0000000180015610 f   commqpsktxrx_cgxe_registry.obj
 0001:00014680       _ssRegisterSymbolicEqualValue 0000000180015680 f   commqpsktxrx_cgxe_registry.obj
 0001:000146f0       _ssAmendLeadingSymbolicDims 00000001800156f0 f   commqpsktxrx_cgxe_registry.obj
 0001:00014770       _ssAmendTrailingSymbolicDims 0000000180015770 f   commqpsktxrx_cgxe_registry.obj
 0001:000147f0       _ssRegisterSymbolicDimsPlus 00000001800157f0 f   commqpsktxrx_cgxe_registry.obj
 0001:00014870       _ssRegisterSymbolicDimsMinus 0000000180015870 f   commqpsktxrx_cgxe_registry.obj
 0001:000148f0       _ssRegisterSymbolicDimsMultiply 00000001800158f0 f   commqpsktxrx_cgxe_registry.obj
 0001:00014970       _ssRegisterSymbolicDimsDivide 0000000180015970 f   commqpsktxrx_cgxe_registry.obj
 0001:000149f0       _ssGetNumSymbolicDims      00000001800159f0 f   commqpsktxrx_cgxe_registry.obj
 0001:00014a60       _ssGetSymbolicDim          0000000180015a60 f   commqpsktxrx_cgxe_registry.obj
 0001:00014ae0       _ssSetInputPortSymbolicDimsId 0000000180015ae0 f   commqpsktxrx_cgxe_registry.obj
 0001:00014b50       _ssGetCompInputPortSymbolicDimsId 0000000180015b50 f   commqpsktxrx_cgxe_registry.obj
 0001:00014bc0       _ssSetCompInputPortSymbolicDimsId 0000000180015bc0 f   commqpsktxrx_cgxe_registry.obj
 0001:00014c30       _ssSetOutputPortSymbolicDimsId 0000000180015c30 f   commqpsktxrx_cgxe_registry.obj
 0001:00014ca0       _ssGetCompOutputPortSymbolicDimsId 0000000180015ca0 f   commqpsktxrx_cgxe_registry.obj
 0001:00014d10       _ssSetCompOutputPortSymbolicDimsId 0000000180015d10 f   commqpsktxrx_cgxe_registry.obj
 0001:00014d80       _ssGetDWorkSymbolicDimsId  0000000180015d80 f   commqpsktxrx_cgxe_registry.obj
 0001:00014df0       _ssSetDWorkSymbolicDimsId  0000000180015df0 f   commqpsktxrx_cgxe_registry.obj
 0001:00014e60       _ssGetCompDWorkSymbolicDimsId 0000000180015e60 f   commqpsktxrx_cgxe_registry.obj
 0001:00014ed0       _ssSetCompDWorkSymbolicDimsId 0000000180015ed0 f   commqpsktxrx_cgxe_registry.obj
 0001:00014f40       _ssCreateSLCGStringBuffer  0000000180015f40 f   commqpsktxrx_cgxe_registry.obj
 0001:00014fb0       _ssAddToSLCGStringBuffer   0000000180015fb0 f   commqpsktxrx_cgxe_registry.obj
 0001:00015020       _ssGetPointerContainedData 0000000180016020 f   commqpsktxrx_cgxe_registry.obj
 0001:000150b0       _ssGetPointerContainedDataWidth 00000001800160b0 f   commqpsktxrx_cgxe_registry.obj
 0001:00015140       _ssRegisterDynamicArrayDataTypeFcn 0000000180016140 f   commqpsktxrx_cgxe_registry.obj
 0001:000151e0       _ssGetDynamicArrayContainedDataCurrentWidthFcn 00000001800161e0 f   commqpsktxrx_cgxe_registry.obj
 0001:000152b0       _ssGetDynamicArrayContainedDataFcn 00000001800162b0 f   commqpsktxrx_cgxe_registry.obj
 0001:00015380       _ssGetInputPortDynamicArrayDataFcn 0000000180016380 f   commqpsktxrx_cgxe_registry.obj
 0001:00015440       _ssGetOutputPortDynamicArrayDataFcn 0000000180016440 f   commqpsktxrx_cgxe_registry.obj
 0001:00015500       _ssGetInputPortDynamicArrayContainedDataFcn 0000000180016500 f   commqpsktxrx_cgxe_registry.obj
 0001:000155c0       _ssGetOutputPortDynamicArrayContainedDataFcn 00000001800165c0 f   commqpsktxrx_cgxe_registry.obj
 0001:00015680       _ssGetDynamicArrayDWorkContainedDataFcn 0000000180016680 f   commqpsktxrx_cgxe_registry.obj
 0001:00017260       __local_stdio_printf_options 0000000180018260 f i commqpsktxrx_cgxe_registry.obj
 0001:00017270       _vsnprintf_l               0000000180018270 f i commqpsktxrx_cgxe_registry.obj
 0001:000172f0       _vsprintf_l                00000001800182f0 f i commqpsktxrx_cgxe_registry.obj
 0001:00017340       sprintf                    0000000180018340 f i commqpsktxrx_cgxe_registry.obj
 0001:00017390       signDouble                 0000000180018390 f   signLib.obj
 0001:000173e0       signFloat                  00000001800183e0 f   signLib.obj
 0001:00017419       mxSetCell_800              0000000180018419 f   libmx:libmx.dll
 0001:0001741f       mxSetFieldByNumber_800     000000018001841f f   libmx:libmx.dll
 0001:00017425       mxCreateString_800         0000000180018425 f   libmx:libmx.dll
 0001:0001742b       mxCreateCellMatrix_800     000000018001842b f   libmx:libmx.dll
 0001:00017431       mxCreateStructMatrix_800   0000000180018431 f   libmx:libmx.dll
 0001:00017437       mxGetPr_800                0000000180018437 f   libmx:libmx.dll
 0001:0001743d       mxCreateDoubleMatrix_800   000000018001843d f   libmx:libmx.dll
 0001:00017443       mxGetNaN_800               0000000180018443 f   libmx:libmx.dll
 0001:00017449       mxCalloc_800               0000000180018449 f   libmx:libmx.dll
 0001:0001744f       mxGetM_800                 000000018001844f f   libmx:libmx.dll
 0001:00017455       mxGetClassID_800           0000000180018455 f   libmx:libmx.dll
 0001:0001745b       mxGetData_800              000000018001845b f   libmx:libmx.dll
 0001:00017461       mxIsNumeric_800            0000000180018461 f   libmx:libmx.dll
 0001:00017467       mxIsChar_800               0000000180018467 f   libmx:libmx.dll
 0001:0001746d       mxIsComplex_800            000000018001846d f   libmx:libmx.dll
 0001:00017473       mxGetN_800                 0000000180018473 f   libmx:libmx.dll
 0001:00017479       mxSetField_800             0000000180018479 f   libmx:libmx.dll
 0001:0001747f       mxCreateNumericMatrix_800  000000018001847f f   libmx:libmx.dll
 0001:00017485       mxCreateDoubleScalar_800   0000000180018485 f   libmx:libmx.dll
 0001:0001748b       mxGetString_800            000000018001848b f   libmx:libmx.dll
 0001:00017491       mexWarnMsgTxt_800          0000000180018491 f   libmex:libmex.dll
 0001:00017497       mexPrintf_800              0000000180018497 f   libmex:libmex.dll
 0001:0001749d       mexCallMATLAB_800          000000018001849d f   libmex:libmex.dll
 0001:000174a3       mexUnlock_800              00000001800184a3 f   libmex:libmex.dll
 0001:000174a9       mexIsLocked_800            00000001800184a9 f   libmex:libmex.dll
 0001:000174af       muDoubleScalarFloor        00000001800184af f   libmwmathutil:libmwmathutil.dll
 0001:000174b5       muDoubleScalarIsNaN        00000001800184b5 f   libmwmathutil:libmwmathutil.dll
 0001:000174bb       muDoubleScalarIsInf        00000001800184bb f   libmwmathutil:libmwmathutil.dll
 0001:000174c1       muDoubleScalarAbs          00000001800184c1 f   libmwmathutil:libmwmathutil.dll
 0001:000174c7       muDoubleScalarCeil         00000001800184c7 f   libmwmathutil:libmwmathutil.dll
 0001:000174cd       muDoubleScalarRound        00000001800184cd f   libmwmathutil:libmwmathutil.dll
 0001:000174d3       muDoubleScalarExp          00000001800184d3 f   libmwmathutil:libmwmathutil.dll
 0001:000174d9       muDoubleScalarLog          00000001800184d9 f   libmwmathutil:libmwmathutil.dll
 0001:000174df       muDoubleScalarPower        00000001800184df f   libmwmathutil:libmwmathutil.dll
 0001:000174e5       muDoubleScalarSqrt         00000001800184e5 f   libmwmathutil:libmwmathutil.dll
 0001:000174eb       muDoubleScalarRem          00000001800184eb f   libmwmathutil:libmwmathutil.dll
 0001:000174f1       emlrtAlias                 00000001800184f1 f   libemlrt:libemlrt.dll
 0001:000174f7       emlrtLicenseCheckR2022a    00000001800184f7 f   libemlrt:libemlrt.dll
 0001:000174fd       emlrtAssign                00000001800184fd f   libemlrt:libemlrt.dll
 0001:00017503       emlrtDynamicBoundsCheckR2012b 0000000180018503 f   libemlrt:libemlrt.dll
 0001:00017509       emlrtCreateString1R2022a   0000000180018509 f   libemlrt:libemlrt.dll
 0001:0001750f       emlrtCreateStructMatrix    000000018001850f f   libemlrt:libemlrt.dll
 0001:00017515       emlrtCreateStructArray     0000000180018515 f   libemlrt:libemlrt.dll
 0001:0001751b       emlrtGetFieldR2017b        000000018001851b f   libemlrt:libemlrt.dll
 0001:00017521       emlrtSetFieldR2017b        0000000180018521 f   libemlrt:libemlrt.dll
 0001:00017527       emlrtCreateCellMatrix      0000000180018527 f   libemlrt:libemlrt.dll
 0001:0001752d       emlrtSetCell               000000018001852d f   libemlrt:libemlrt.dll
 0001:00017533       emlrtGetCell               0000000180018533 f   libemlrt:libemlrt.dll
 0001:00017539       emlrtCreateNumericMatrix   0000000180018539 f   libemlrt:libemlrt.dll
 0001:0001753f       emlrtCreateNumericArray    000000018001853f f   libemlrt:libemlrt.dll
 0001:00017545       emlrtCreateDoubleScalar    0000000180018545 f   libemlrt:libemlrt.dll
 0001:0001754b       emlrtCreateLogicalScalar   000000018001854b f   libemlrt:libemlrt.dll
 0001:00017551       emlrtCreateCharArray       0000000180018551 f   libemlrt:libemlrt.dll
 0001:00017557       emlrtDestroyArray          0000000180018557 f   libemlrt:libemlrt.dll
 0001:0001755d       emlrtFreeImagIfZero        000000018001855d f   libemlrt:libemlrt.dll
 0001:00017563       emlrtCallMATLABR2012b      0000000180018563 f   libemlrt:libemlrt.dll
 0001:00017569       emlrtInitCharArrayR2013a   0000000180018569 f   libemlrt:libemlrt.dll
 0001:0001756f       emlrtDimSizeGeqCheckR2012b 000000018001856f f   libemlrt:libemlrt.dll
 0001:00017575       emlrtCheckBuiltInR2012b    0000000180018575 f   libemlrt:libemlrt.dll
 0001:0001757b       emlrtCheckStructR2012b     000000018001857b f   libemlrt:libemlrt.dll
 0001:00017581       emlrtImportCharArrayR2015b 0000000180018581 f   libemlrt:libemlrt.dll
 0001:00017587       emlrtImportArrayR2015b     0000000180018587 f   libemlrt:libemlrt.dll
 0001:0001758d       emlrtMxGetData             000000018001858d f   libemlrt:libemlrt.dll
 0001:00017593       emlrtMxGetLogicals         0000000180018593 f   libemlrt:libemlrt.dll
 0001:00017599       cgxertGetInputPortSignal   0000000180018599 f   libmwcgxert:libmwcgxert.dll
 0001:0001759f       cgxertGetOutputPortSignal  000000018001859f f   libmwcgxert:libmwcgxert.dll
 0001:000175a5       cgxertGetRunTimeParamInfoData 00000001800185a5 f   libmwcgxert:libmwcgxert.dll
 0001:000175ab       cgxertGetCurrentInputPortDimensions 00000001800185ab f   libmwcgxert:libmwcgxert.dll
 0001:000175b1       cgxertGetCurrentOutputPortDimensions 00000001800185b1 f   libmwcgxert:libmwcgxert.dll
 0001:000175b7       cgxertSetCurrentOutputPortDimensions 00000001800185b7 f   libmwcgxert:libmwcgxert.dll
 0001:000175bd       cgxertCheckCurrentInputPortDimensions 00000001800185bd f   libmwcgxert:libmwcgxert.dll
 0001:000175c3       cgxertGetRuntimeInstance   00000001800185c3 f   libmwcgxert:libmwcgxert.dll
 0001:000175c9       cgxertSetRuntimeInstance   00000001800185c9 f   libmwcgxert:libmwcgxert.dll
 0001:000175cf       cgxertGetEMLRTCtx          00000001800185cf f   libmwcgxert:libmwcgxert.dll
 0001:000175d5       cgxertSetGcb               00000001800185d5 f   libmwcgxert:libmwcgxert.dll
 0001:000175db       cgxertRestoreGcb           00000001800185db f   libmwcgxert:libmwcgxert.dll
 0001:000175e1       cgxertSetSimStateCompliance 00000001800185e1 f   libmwcgxert:libmwcgxert.dll
 0001:000175e8       __GSHandlerCheck           00000001800185e8 f   MSVCRT:gshandler.obj
 0001:00017608       __GSHandlerCheckCommon     0000000180018608 f   MSVCRT:gshandler.obj
 0001:00017680       __chkstk                   0000000180018680 f   MSVCRT:chkstk.obj
 0001:00017680       _alloca_probe              0000000180018680 f   MSVCRT:chkstk.obj
 0001:000176e0       __security_check_cookie    00000001800186e0 f   MSVCRT:amdsecgs.obj
 0001:00017700       __raise_securityfailure    0000000180018700 f   MSVCRT:gs_report.obj
 0001:00017734       __report_gsfailure         0000000180018734 f   MSVCRT:gs_report.obj
 0001:00017808       __report_rangecheckfailure 0000000180018808 f   MSVCRT:gs_report.obj
 0001:0001781c       __report_securityfailure   000000018001881c f   MSVCRT:gs_report.obj
 0001:000178b8       __report_securityfailureEx 00000001800188b8 f   MSVCRT:gs_report.obj
 0001:00017de8       _CRT_INIT                  0000000180018de8 f   MSVCRT:dll_dllmain.obj
 0001:00017df0       _DllMainCRTStartup         0000000180018df0 f   MSVCRT:dll_dllmain.obj
 0001:00017e9c       __security_init_cookie     0000000180018e9c f   MSVCRT:gs_support.obj
 0001:00017f48       DllMain                    0000000180018f48 f   MSVCRT:dll_dllmain_stub.obj
 0001:00017f6c       ?__scrt_initialize_type_info@@YAXXZ 0000000180018f6c f   MSVCRT:tncleanup.obj
 0001:00017f7c       ?__scrt_uninitialize_type_info@@YAXXZ 0000000180018f7c f   MSVCRT:tncleanup.obj
 0001:00017f88       __local_stdio_scanf_options 0000000180018f88 f i MSVCRT:default_local_stdio_options.obj
 0001:00017f90       __scrt_initialize_default_local_stdio_options 0000000180018f90 f   MSVCRT:default_local_stdio_options.obj
 0001:00017fac       ?configure_argv@__scrt_narrow_argv_policy@@SAHXZ 0000000180018fac f i MSVCRT:utility.obj
 0001:0001800c       ?initialize_environment@__scrt_narrow_environment_policy@@SAHXZ 000000018001900c f i MSVCRT:utility.obj
 0001:00018044       NtCurrentTeb               0000000180019044 f i MSVCRT:utility.obj
 0001:00018050       __scrt_acquire_startup_lock 0000000180019050 f   MSVCRT:utility.obj
 0001:0001808c       __scrt_dllmain_after_initialize_c 000000018001908c f   MSVCRT:utility.obj
 0001:000180c0       __scrt_dllmain_before_initialize_c 00000001800190c0 f   MSVCRT:utility.obj
 0001:000180d8       __scrt_dllmain_crt_thread_attach 00000001800190d8 f   MSVCRT:utility.obj
 0001:00018100       __scrt_dllmain_crt_thread_detach 0000000180019100 f   MSVCRT:utility.obj
 0001:00018118       __scrt_dllmain_exception_filter 0000000180019118 f   MSVCRT:utility.obj
 0001:00018178       __scrt_dllmain_uninitialize_c 0000000180019178 f   MSVCRT:utility.obj
 0001:000181a8       __scrt_dllmain_uninitialize_critical 00000001800191a8 f   MSVCRT:utility.obj
 0001:000181bc       __scrt_initialize_crt      00000001800191bc f   MSVCRT:utility.obj
 0001:00018208       __scrt_initialize_onexit_tables 0000000180019208 f   MSVCRT:utility.obj
 0001:00018294       __scrt_is_nonwritable_in_current_image 0000000180019294 f   MSVCRT:utility.obj
 0001:0001832c       __scrt_release_startup_lock 000000018001932c f   MSVCRT:utility.obj
 0001:00018350       __scrt_uninitialize_crt    0000000180019350 f   MSVCRT:utility.obj
 0001:0001837c       _onexit                    000000018001937c f   MSVCRT:utility.obj
 0001:000183b8       at_quick_exit              00000001800193b8 f   MSVCRT:utility.obj
 0001:000183d8       atexit                     00000001800193d8 f   MSVCRT:utility.obj
 0001:000183f0       __scrt_get_dyn_tls_init_callback 00000001800193f0 f   MSVCRT:dyn_tls_init.obj
 0001:000183f8       __crt_debugger_hook        00000001800193f8 f   MSVCRT:utility_desktop.obj
 0001:00018400       __scrt_fastfail            0000000180019400 f   MSVCRT:utility_desktop.obj
 0001:0001854c       __scrt_get_show_window_mode 000000018001954c f   MSVCRT:utility_desktop.obj
 0001:00018588       __scrt_initialize_mta      0000000180019588 f   MSVCRT:utility_desktop.obj
 0001:00018590       __scrt_initialize_winrt    0000000180019590 f   MSVCRT:utility_desktop.obj
 0001:00018594       __scrt_is_managed_app      0000000180019594 f   MSVCRT:utility_desktop.obj
 0001:000185e8       __scrt_set_unhandled_exception_filter 00000001800195e8 f   MSVCRT:utility_desktop.obj
 0001:000185f8       __scrt_exe_initialize_mta  00000001800195f8 f   MSVCRT:utility_desktop.obj
 0001:000185f8       __scrt_stub_for_initialize_mta 00000001800195f8 f   MSVCRT:utility_desktop.obj
 0001:000185fc       __scrt_unhandled_exception_filter 00000001800195fc f   MSVCRT:utility_desktop.obj
 0001:00018658       _RTC_Initialize            0000000180019658 f   MSVCRT:initsect.obj
 0001:00018694       _RTC_Terminate             0000000180019694 f   MSVCRT:initsect.obj
 0001:000186d0       _guard_check_icall_nop     00000001800196d0 f i MSVCRT:guard_support.obj
 0001:000186d4       ReadNoFence64              00000001800196d4 f i MSVCRT:guard_support.obj
 0001:000186d8       ReadPointerNoFence         00000001800196d8 f i MSVCRT:guard_support.obj
 0001:000186dc       __castguard_check_failure_debugbreak 00000001800196dc f i MSVCRT:guard_support.obj
 0001:000186f8       __castguard_check_failure_fastfail 00000001800196f8 f i MSVCRT:guard_support.obj
 0001:0001871c       __castguard_check_failure_nop 000000018001971c f i MSVCRT:guard_support.obj
 0001:00018720       __castguard_check_failure_os_handled 0000000180019720 f i MSVCRT:guard_support.obj
 0001:00018780       __castguard_slow_path_check_debugbreak 0000000180019780 f i MSVCRT:guard_support.obj
 0001:000187b4       __castguard_slow_path_check_fastfail 00000001800197b4 f i MSVCRT:guard_support.obj
 0001:000187f0       __castguard_slow_path_check_nop 00000001800197f0 f i MSVCRT:guard_support.obj
 0001:000187f4       __castguard_slow_path_check_os_handled 00000001800197f4 f i MSVCRT:guard_support.obj
 0001:00018868       _guard_icall_checks_enforced 0000000180019868 f i MSVCRT:guard_support.obj
 0001:00018880       _guard_rf_checks_enforced  0000000180019880 f i MSVCRT:guard_support.obj
 0001:00018884       __isa_available_init       0000000180019884 f   MSVCRT:cpu_disp.obj
 0001:00018a28       _get_startup_argv_mode     0000000180019a28 f   MSVCRT:argv_mode.obj
 0001:00018a30       __scrt_is_ucrt_dll_in_use  0000000180019a30 f   MSVCRT:ucrt_detection.obj
 0001:00018a40       RtlCaptureContext          0000000180019a40 f   kernel32:KERNEL32.dll
 0001:00018a46       RtlLookupFunctionEntry     0000000180019a46 f   kernel32:KERNEL32.dll
 0001:00018a4c       RtlVirtualUnwind           0000000180019a4c f   kernel32:KERNEL32.dll
 0001:00018a52       UnhandledExceptionFilter   0000000180019a52 f   kernel32:KERNEL32.dll
 0001:00018a58       SetUnhandledExceptionFilter 0000000180019a58 f   kernel32:KERNEL32.dll
 0001:00018a5e       GetCurrentProcess          0000000180019a5e f   kernel32:KERNEL32.dll
 0001:00018a64       TerminateProcess           0000000180019a64 f   kernel32:KERNEL32.dll
 0001:00018a6a       IsProcessorFeaturePresent  0000000180019a6a f   kernel32:KERNEL32.dll
 0001:00018a70       QueryPerformanceCounter    0000000180019a70 f   kernel32:KERNEL32.dll
 0001:00018a76       GetCurrentProcessId        0000000180019a76 f   kernel32:KERNEL32.dll
 0001:00018a7c       GetCurrentThreadId         0000000180019a7c f   kernel32:KERNEL32.dll
 0001:00018a82       GetSystemTimeAsFileTime    0000000180019a82 f   kernel32:KERNEL32.dll
 0001:00018a88       DisableThreadLibraryCalls  0000000180019a88 f   kernel32:KERNEL32.dll
 0001:00018a8e       InitializeSListHead        0000000180019a8e f   kernel32:KERNEL32.dll
 0001:00018a94       IsDebuggerPresent          0000000180019a94 f   kernel32:KERNEL32.dll
 0001:00018a9a       GetStartupInfoW            0000000180019a9a f   kernel32:KERNEL32.dll
 0001:00018aa0       GetModuleHandleW           0000000180019aa0 f   kernel32:KERNEL32.dll
 0001:00018aa6       memcmp                     0000000180019aa6 f   vcruntime:VCRUNTIME140.dll
 0001:00018aac       memcpy                     0000000180019aac f   vcruntime:VCRUNTIME140.dll
 0001:00018ab2       __C_specific_handler       0000000180019ab2 f   vcruntime:VCRUNTIME140.dll
 0001:00018ab8       __std_type_info_destroy_list 0000000180019ab8 f   vcruntime:VCRUNTIME140.dll
 0001:00018abe       __current_exception        0000000180019abe f   vcruntime:VCRUNTIME140.dll
 0001:00018ac4       __current_exception_context 0000000180019ac4 f   vcruntime:VCRUNTIME140.dll
 0001:00018aca       memset                     0000000180019aca f   vcruntime:VCRUNTIME140.dll
 0001:00018ad0       calloc                     0000000180019ad0 f   ucrt:api-ms-win-crt-heap-l1-1-0.dll
 0001:00018ad6       free                       0000000180019ad6 f   ucrt:api-ms-win-crt-heap-l1-1-0.dll
 0001:00018adc       cos                        0000000180019adc f   ucrt:api-ms-win-crt-math-l1-1-0.dll
 0001:00018ae2       sin                        0000000180019ae2 f   ucrt:api-ms-win-crt-math-l1-1-0.dll
 0001:00018ae8       _localtime64               0000000180019ae8 f   ucrt:api-ms-win-crt-time-l1-1-0.dll
 0001:00018aee       _time64                    0000000180019aee f   ucrt:api-ms-win-crt-time-l1-1-0.dll
 0001:00018af4       strcmp                     0000000180019af4 f   ucrt:api-ms-win-crt-string-l1-1-0.dll
 0001:00018afa       strlen                     0000000180019afa f   ucrt:api-ms-win-crt-string-l1-1-0.dll
 0001:00018b00       __stdio_common_vsprintf    0000000180019b00 f   ucrt:api-ms-win-crt-stdio-l1-1-0.dll
 0001:00018b06       malloc                     0000000180019b06 f   ucrt:api-ms-win-crt-heap-l1-1-0.dll
 0001:00018b0c       _initterm                  0000000180019b0c f   ucrt:api-ms-win-crt-runtime-l1-1-0.dll
 0001:00018b12       _initterm_e                0000000180019b12 f   ucrt:api-ms-win-crt-runtime-l1-1-0.dll
 0001:00018b18       _seh_filter_dll            0000000180019b18 f   ucrt:api-ms-win-crt-runtime-l1-1-0.dll
 0001:00018b1e       _configure_narrow_argv     0000000180019b1e f   ucrt:api-ms-win-crt-runtime-l1-1-0.dll
 0001:00018b24       _initialize_narrow_environment 0000000180019b24 f   ucrt:api-ms-win-crt-runtime-l1-1-0.dll
 0001:00018b2a       _initialize_onexit_table   0000000180019b2a f   ucrt:api-ms-win-crt-runtime-l1-1-0.dll
 0001:00018b30       _register_onexit_function  0000000180019b30 f   ucrt:api-ms-win-crt-runtime-l1-1-0.dll
 0001:00018b36       _execute_onexit_table      0000000180019b36 f   ucrt:api-ms-win-crt-runtime-l1-1-0.dll
 0001:00018b3c       _crt_atexit                0000000180019b3c f   ucrt:api-ms-win-crt-runtime-l1-1-0.dll
 0001:00018b42       _crt_at_quick_exit         0000000180019b42 f   ucrt:api-ms-win-crt-runtime-l1-1-0.dll
 0001:00018b48       _cexit                     0000000180019b48 f   ucrt:api-ms-win-crt-runtime-l1-1-0.dll
 0001:00018b4e       terminate                  0000000180019b4e f   ucrt:api-ms-win-crt-runtime-l1-1-0.dll
 0001:00018b54       __vcrt_initialize          0000000180019b54 f   MSVCRT:ucrt_stubs.obj
 0001:00018b54       __scrt_stub_for_acrt_initialize 0000000180019b54 f   MSVCRT:ucrt_stubs.obj
 0001:00018b54       __acrt_initialize          0000000180019b54 f   MSVCRT:ucrt_stubs.obj
 0001:00018b58       __scrt_stub_for_acrt_thread_attach 0000000180019b58 f   MSVCRT:ucrt_stubs.obj
 0001:00018b58       __acrt_thread_attach       0000000180019b58 f   MSVCRT:ucrt_stubs.obj
 0001:00018b58       __vcrt_thread_attach       0000000180019b58 f   MSVCRT:ucrt_stubs.obj
 0001:00018b5c       __acrt_thread_detach       0000000180019b5c f   MSVCRT:ucrt_stubs.obj
 0001:00018b5c       __scrt_stub_for_acrt_thread_detach 0000000180019b5c f   MSVCRT:ucrt_stubs.obj
 0001:00018b5c       __vcrt_thread_detach       0000000180019b5c f   MSVCRT:ucrt_stubs.obj
 0001:00018b60       __scrt_stub_for_acrt_uninitialize 0000000180019b60 f   MSVCRT:ucrt_stubs.obj
 0001:00018b60       __vcrt_uninitialize        0000000180019b60 f   MSVCRT:ucrt_stubs.obj
 0001:00018b60       __acrt_uninitialize        0000000180019b60 f   MSVCRT:ucrt_stubs.obj
 0001:00018b64       __vcrt_uninitialize_critical 0000000180019b64 f   MSVCRT:ucrt_stubs.obj
 0001:00018b64       __acrt_uninitialize_critical 0000000180019b64 f   MSVCRT:ucrt_stubs.obj
 0001:00018b64       __scrt_stub_for_acrt_uninitialize_critical 0000000180019b64 f   MSVCRT:ucrt_stubs.obj
 0001:00018b68       __scrt_stub_for_is_c_termination_complete 0000000180019b68 f   MSVCRT:ucrt_stubs.obj
 0001:00018b68       _is_c_termination_complete 0000000180019b68 f   MSVCRT:ucrt_stubs.obj
 0001:00018b80       _guard_dispatch_icall_nop  0000000180019b80 f   MSVCRT:guard_dispatch.obj
 0001:00018ba0       _guard_xfg_dispatch_icall_nop 0000000180019ba0 f   MSVCRT:guard_xfg_dispatch.obj
 0002:00000000       __imp_DisableThreadLibraryCalls 000000018001a000     kernel32:KERNEL32.dll
 0002:00000008       __imp_InitializeSListHead  000000018001a008     kernel32:KERNEL32.dll
 0002:00000010       __imp_IsDebuggerPresent    000000018001a010     kernel32:KERNEL32.dll
 0002:00000018       __imp_GetModuleHandleW     000000018001a018     kernel32:KERNEL32.dll
 0002:00000020       __imp_RtlCaptureContext    000000018001a020     kernel32:KERNEL32.dll
 0002:00000028       __imp_RtlLookupFunctionEntry 000000018001a028     kernel32:KERNEL32.dll
 0002:00000030       __imp_RtlVirtualUnwind     000000018001a030     kernel32:KERNEL32.dll
 0002:00000038       __imp_UnhandledExceptionFilter 000000018001a038     kernel32:KERNEL32.dll
 0002:00000040       __imp_SetUnhandledExceptionFilter 000000018001a040     kernel32:KERNEL32.dll
 0002:00000048       __imp_GetStartupInfoW      000000018001a048     kernel32:KERNEL32.dll
 0002:00000050       __imp_GetCurrentThreadId   000000018001a050     kernel32:KERNEL32.dll
 0002:00000058       __imp_GetCurrentProcessId  000000018001a058     kernel32:KERNEL32.dll
 0002:00000060       __imp_GetSystemTimeAsFileTime 000000018001a060     kernel32:KERNEL32.dll
 0002:00000068       __imp_GetCurrentProcess    000000018001a068     kernel32:KERNEL32.dll
 0002:00000070       __imp_TerminateProcess     000000018001a070     kernel32:KERNEL32.dll
 0002:00000078       __imp_IsProcessorFeaturePresent 000000018001a078     kernel32:KERNEL32.dll
 0002:00000080       __imp_QueryPerformanceCounter 000000018001a080     kernel32:KERNEL32.dll
 0002:00000088       \177KERNEL32_NULL_THUNK_DATA 000000018001a088     kernel32:KERNEL32.dll
 0002:00000090       __imp___std_type_info_destroy_list 000000018001a090     vcruntime:VCRUNTIME140.dll
 0002:00000098       __imp___current_exception  000000018001a098     vcruntime:VCRUNTIME140.dll
 0002:000000a0       __imp_memcmp               000000018001a0a0     vcruntime:VCRUNTIME140.dll
 0002:000000a8       __imp_memcpy               000000018001a0a8     vcruntime:VCRUNTIME140.dll
 0002:000000b0       __imp_memset               000000018001a0b0     vcruntime:VCRUNTIME140.dll
 0002:000000b8       __imp___current_exception_context 000000018001a0b8     vcruntime:VCRUNTIME140.dll
 0002:000000c0       __imp___C_specific_handler 000000018001a0c0     vcruntime:VCRUNTIME140.dll
 0002:000000c8       \177VCRUNTIME140_NULL_THUNK_DATA 000000018001a0c8     vcruntime:VCRUNTIME140.dll
 0002:000000d0       __imp_calloc               000000018001a0d0     ucrt:api-ms-win-crt-heap-l1-1-0.dll
 0002:000000d8       __imp_free                 000000018001a0d8     ucrt:api-ms-win-crt-heap-l1-1-0.dll
 0002:000000e0       __imp_malloc               000000018001a0e0     ucrt:api-ms-win-crt-heap-l1-1-0.dll
 0002:000000e8       \177api-ms-win-crt-heap-l1-1-0_NULL_THUNK_DATA 000000018001a0e8     ucrt:api-ms-win-crt-heap-l1-1-0.dll
 0002:000000f0       __imp_cos                  000000018001a0f0     ucrt:api-ms-win-crt-math-l1-1-0.dll
 0002:000000f8       __imp_sin                  000000018001a0f8     ucrt:api-ms-win-crt-math-l1-1-0.dll
 0002:00000100       \177api-ms-win-crt-math-l1-1-0_NULL_THUNK_DATA 000000018001a100     ucrt:api-ms-win-crt-math-l1-1-0.dll
 0002:00000108       __imp__initialize_narrow_environment 000000018001a108     ucrt:api-ms-win-crt-runtime-l1-1-0.dll
 0002:00000110       __imp__initterm            000000018001a110     ucrt:api-ms-win-crt-runtime-l1-1-0.dll
 0002:00000118       __imp__configure_narrow_argv 000000018001a118     ucrt:api-ms-win-crt-runtime-l1-1-0.dll
 0002:00000120       __imp__register_onexit_function 000000018001a120     ucrt:api-ms-win-crt-runtime-l1-1-0.dll
 0002:00000128       __imp__execute_onexit_table 000000018001a128     ucrt:api-ms-win-crt-runtime-l1-1-0.dll
 0002:00000130       __imp__crt_atexit          000000018001a130     ucrt:api-ms-win-crt-runtime-l1-1-0.dll
 0002:00000138       __imp__crt_at_quick_exit   000000018001a138     ucrt:api-ms-win-crt-runtime-l1-1-0.dll
 0002:00000140       __imp__cexit               000000018001a140     ucrt:api-ms-win-crt-runtime-l1-1-0.dll
 0002:00000148       __imp_terminate            000000018001a148     ucrt:api-ms-win-crt-runtime-l1-1-0.dll
 0002:00000150       __imp__seh_filter_dll      000000018001a150     ucrt:api-ms-win-crt-runtime-l1-1-0.dll
 0002:00000158       __imp__initialize_onexit_table 000000018001a158     ucrt:api-ms-win-crt-runtime-l1-1-0.dll
 0002:00000160       __imp__initterm_e          000000018001a160     ucrt:api-ms-win-crt-runtime-l1-1-0.dll
 0002:00000168       \177api-ms-win-crt-runtime-l1-1-0_NULL_THUNK_DATA 000000018001a168     ucrt:api-ms-win-crt-runtime-l1-1-0.dll
 0002:00000170       __imp___stdio_common_vsprintf 000000018001a170     ucrt:api-ms-win-crt-stdio-l1-1-0.dll
 0002:00000178       \177api-ms-win-crt-stdio-l1-1-0_NULL_THUNK_DATA 000000018001a178     ucrt:api-ms-win-crt-stdio-l1-1-0.dll
 0002:00000180       __imp_strlen               000000018001a180     ucrt:api-ms-win-crt-string-l1-1-0.dll
 0002:00000188       __imp_strcmp               000000018001a188     ucrt:api-ms-win-crt-string-l1-1-0.dll
 0002:00000190       \177api-ms-win-crt-string-l1-1-0_NULL_THUNK_DATA 000000018001a190     ucrt:api-ms-win-crt-string-l1-1-0.dll
 0002:00000198       __imp__localtime64         000000018001a198     ucrt:api-ms-win-crt-time-l1-1-0.dll
 0002:000001a0       __imp__time64              000000018001a1a0     ucrt:api-ms-win-crt-time-l1-1-0.dll
 0002:000001a8       \177api-ms-win-crt-time-l1-1-0_NULL_THUNK_DATA 000000018001a1a8     ucrt:api-ms-win-crt-time-l1-1-0.dll
 0002:000001b0       __imp_emlrtCreateLogicalScalar 000000018001a1b0     libemlrt:libemlrt.dll
 0002:000001b8       __imp_emlrtCreateCharArray 000000018001a1b8     libemlrt:libemlrt.dll
 0002:000001c0       __imp_emlrtDestroyArray    000000018001a1c0     libemlrt:libemlrt.dll
 0002:000001c8       __imp_emlrtFreeImagIfZero  000000018001a1c8     libemlrt:libemlrt.dll
 0002:000001d0       __imp_emlrtCallMATLABR2012b 000000018001a1d0     libemlrt:libemlrt.dll
 0002:000001d8       __imp_emlrtInitCharArrayR2013a 000000018001a1d8     libemlrt:libemlrt.dll
 0002:000001e0       __imp_emlrtCreateNumericArray 000000018001a1e0     libemlrt:libemlrt.dll
 0002:000001e8       __imp_emlrtCheckBuiltInR2012b 000000018001a1e8     libemlrt:libemlrt.dll
 0002:000001f0       __imp_emlrtCheckStructR2012b 000000018001a1f0     libemlrt:libemlrt.dll
 0002:000001f8       __imp_emlrtImportCharArrayR2015b 000000018001a1f8     libemlrt:libemlrt.dll
 0002:00000200       __imp_emlrtImportArrayR2015b 000000018001a200     libemlrt:libemlrt.dll
 0002:00000208       __imp_emlrtMxGetData       000000018001a208     libemlrt:libemlrt.dll
 0002:00000210       __imp_emlrtMxGetLogicals   000000018001a210     libemlrt:libemlrt.dll
 0002:00000218       __imp_emlrtCreateStructArray 000000018001a218     libemlrt:libemlrt.dll
 0002:00000220       __imp_emlrtGetCell         000000018001a220     libemlrt:libemlrt.dll
 0002:00000228       __imp_emlrtCreateDoubleScalar 000000018001a228     libemlrt:libemlrt.dll
 0002:00000230       __imp_emlrtSetCell         000000018001a230     libemlrt:libemlrt.dll
 0002:00000238       __imp_emlrtCreateCellMatrix 000000018001a238     libemlrt:libemlrt.dll
 0002:00000240       __imp_emlrtSetFieldR2017b  000000018001a240     libemlrt:libemlrt.dll
 0002:00000248       __imp_emlrtDimSizeGeqCheckR2012b 000000018001a248     libemlrt:libemlrt.dll
 0002:00000250       __imp_emlrtCreateNumericMatrix 000000018001a250     libemlrt:libemlrt.dll
 0002:00000258       __imp_emlrtGetFieldR2017b  000000018001a258     libemlrt:libemlrt.dll
 0002:00000260       __imp_emlrtAlias           000000018001a260     libemlrt:libemlrt.dll
 0002:00000268       __imp_emlrtLicenseCheckR2022a 000000018001a268     libemlrt:libemlrt.dll
 0002:00000270       __imp_emlrtAssign          000000018001a270     libemlrt:libemlrt.dll
 0002:00000278       __imp_emlrtDynamicBoundsCheckR2012b 000000018001a278     libemlrt:libemlrt.dll
 0002:00000280       __imp_emlrtCreateString1R2022a 000000018001a280     libemlrt:libemlrt.dll
 0002:00000288       __imp_emlrtCreateStructMatrix 000000018001a288     libemlrt:libemlrt.dll
 0002:00000290       \177libemlrt_NULL_THUNK_DATA 000000018001a290     libemlrt:libemlrt.dll
 0002:00000298       __imp_mexWarnMsgTxt_800    000000018001a298     libmex:libmex.dll
 0002:000002a0       __imp_mexPrintf_800        000000018001a2a0     libmex:libmex.dll
 0002:000002a8       __imp_mexCallMATLAB_800    000000018001a2a8     libmex:libmex.dll
 0002:000002b0       __imp_mexIsLocked_800      000000018001a2b0     libmex:libmex.dll
 0002:000002b8       __imp_mexUnlock_800        000000018001a2b8     libmex:libmex.dll
 0002:000002c0       \177libmex_NULL_THUNK_DATA 000000018001a2c0     libmex:libmex.dll
 0002:000002c8       __imp_cgxertGetCurrentOutputPortDimensions 000000018001a2c8     libmwcgxert:libmwcgxert.dll
 0002:000002d0       __imp_cgxertSetCurrentOutputPortDimensions 000000018001a2d0     libmwcgxert:libmwcgxert.dll
 0002:000002d8       __imp_cgxertSetRuntimeInstance 000000018001a2d8     libmwcgxert:libmwcgxert.dll
 0002:000002e0       __imp_cgxertSetSimStateCompliance 000000018001a2e0     libmwcgxert:libmwcgxert.dll
 0002:000002e8       __imp_cgxertGetEMLRTCtx    000000018001a2e8     libmwcgxert:libmwcgxert.dll
 0002:000002f0       __imp_cgxertSetGcb         000000018001a2f0     libmwcgxert:libmwcgxert.dll
 0002:000002f8       __imp_cgxertRestoreGcb     000000018001a2f8     libmwcgxert:libmwcgxert.dll
 0002:00000300       __imp_cgxertGetCurrentInputPortDimensions 000000018001a300     libmwcgxert:libmwcgxert.dll
 0002:00000308       __imp_cgxertGetRunTimeParamInfoData 000000018001a308     libmwcgxert:libmwcgxert.dll
 0002:00000310       __imp_cgxertGetOutputPortSignal 000000018001a310     libmwcgxert:libmwcgxert.dll
 0002:00000318       __imp_cgxertGetInputPortSignal 000000018001a318     libmwcgxert:libmwcgxert.dll
 0002:00000320       __imp_cgxertGetRuntimeInstance 000000018001a320     libmwcgxert:libmwcgxert.dll
 0002:00000328       __imp_cgxertCheckCurrentInputPortDimensions 000000018001a328     libmwcgxert:libmwcgxert.dll
 0002:00000330       \177libmwcgxert_NULL_THUNK_DATA 000000018001a330     libmwcgxert:libmwcgxert.dll
 0002:00000338       __imp_muDoubleScalarIsNaN  000000018001a338     libmwmathutil:libmwmathutil.dll
 0002:00000340       __imp_muDoubleScalarRem    000000018001a340     libmwmathutil:libmwmathutil.dll
 0002:00000348       __imp_muDoubleScalarSqrt   000000018001a348     libmwmathutil:libmwmathutil.dll
 0002:00000350       __imp_muDoubleScalarPower  000000018001a350     libmwmathutil:libmwmathutil.dll
 0002:00000358       __imp_muDoubleScalarLog    000000018001a358     libmwmathutil:libmwmathutil.dll
 0002:00000360       __imp_muDoubleScalarExp    000000018001a360     libmwmathutil:libmwmathutil.dll
 0002:00000368       __imp_muDoubleScalarRound  000000018001a368     libmwmathutil:libmwmathutil.dll
 0002:00000370       __imp_muDoubleScalarCeil   000000018001a370     libmwmathutil:libmwmathutil.dll
 0002:00000378       __imp_muDoubleScalarAbs    000000018001a378     libmwmathutil:libmwmathutil.dll
 0002:00000380       __imp_muDoubleScalarIsInf  000000018001a380     libmwmathutil:libmwmathutil.dll
 0002:00000388       __imp_muDoubleScalarFloor  000000018001a388     libmwmathutil:libmwmathutil.dll
 0002:00000390       \177libmwmathutil_NULL_THUNK_DATA 000000018001a390     libmwmathutil:libmwmathutil.dll
 0002:00000398       __imp_mxSetFieldByNumber_800 000000018001a398     libmx:libmx.dll
 0002:000003a0       __imp_mxGetString_800      000000018001a3a0     libmx:libmx.dll
 0002:000003a8       __imp_mxCreateDoubleScalar_800 000000018001a3a8     libmx:libmx.dll
 0002:000003b0       __imp_mxCreateNumericMatrix_800 000000018001a3b0     libmx:libmx.dll
 0002:000003b8       __imp_mxSetField_800       000000018001a3b8     libmx:libmx.dll
 0002:000003c0       __imp_mxGetN_800           000000018001a3c0     libmx:libmx.dll
 0002:000003c8       __imp_mxIsComplex_800      000000018001a3c8     libmx:libmx.dll
 0002:000003d0       __imp_mxIsChar_800         000000018001a3d0     libmx:libmx.dll
 0002:000003d8       __imp_mxIsNumeric_800      000000018001a3d8     libmx:libmx.dll
 0002:000003e0       __imp_mxGetData_800        000000018001a3e0     libmx:libmx.dll
 0002:000003e8       __imp_mxGetClassID_800     000000018001a3e8     libmx:libmx.dll
 0002:000003f0       __imp_mxGetM_800           000000018001a3f0     libmx:libmx.dll
 0002:000003f8       __imp_mxCalloc_800         000000018001a3f8     libmx:libmx.dll
 0002:00000400       __imp_mxGetNaN_800         000000018001a400     libmx:libmx.dll
 0002:00000408       __imp_mxCreateDoubleMatrix_800 000000018001a408     libmx:libmx.dll
 0002:00000410       __imp_mxGetPr_800          000000018001a410     libmx:libmx.dll
 0002:00000418       __imp_mxCreateStructMatrix_800 000000018001a418     libmx:libmx.dll
 0002:00000420       __imp_mxCreateCellMatrix_800 000000018001a420     libmx:libmx.dll
 0002:00000428       __imp_mxCreateString_800   000000018001a428     libmx:libmx.dll
 0002:00000430       __imp_mxSetCell_800        000000018001a430     libmx:libmx.dll
 0002:00000438       \177libmx_NULL_THUNK_DATA  000000018001a438     libmx:libmx.dll
 0002:00000440       __guard_check_icall_fptr   000000018001a440     MSVCRT:guard_support.obj
 0002:00000448       __guard_xfg_check_icall_fptr 000000018001a448     MSVCRT:guard_support.obj
 0002:00000450       __guard_dispatch_icall_fptr 000000018001a450     MSVCRT:guard_support.obj
 0002:00000458       __guard_xfg_dispatch_icall_fptr 000000018001a458     MSVCRT:guard_support.obj
 0002:00000460       __guard_xfg_table_dispatch_icall_fptr 000000018001a460     MSVCRT:guard_support.obj
 0002:00000468       __xc_a                     000000018001a468     MSVCRT:initializers.obj
 0002:00000470       __xc_z                     000000018001a470     MSVCRT:initializers.obj
 0002:00000478       __xi_a                     000000018001a478     MSVCRT:initializers.obj
 0002:00000480       __xi_z                     000000018001a480     MSVCRT:initializers.obj
 0002:00000488       __xp_a                     000000018001a488     MSVCRT:initializers.obj
 0002:00000490       __xp_z                     000000018001a490     MSVCRT:initializers.obj
 0002:00000498       __xt_a                     000000018001a498     MSVCRT:initializers.obj
 0002:000004a0       __xt_z                     000000018001a4a0     MSVCRT:initializers.obj
 0002:00000688       __real@0000000000000000    000000018001a688     m_BTWFqGYD8aagFTEBQPdwsF.obj
 0002:00000690       __real@3fd0000000000000    000000018001a690     m_BTWFqGYD8aagFTEBQPdwsF.obj
 0002:00000698       __real@3fe921fb54442d18    000000018001a698     m_BTWFqGYD8aagFTEBQPdwsF.obj
 0002:000006a0       __real@3ff0000000000000    000000018001a6a0     m_BTWFqGYD8aagFTEBQPdwsF.obj
 0002:000006a8       __real@4000000000000000    000000018001a6a8     m_BTWFqGYD8aagFTEBQPdwsF.obj
 0002:000006b0       __real@4010000000000000    000000018001a6b0     m_BTWFqGYD8aagFTEBQPdwsF.obj
 0002:000006b8       __real@bff0000000000000    000000018001a6b8     m_BTWFqGYD8aagFTEBQPdwsF.obj
 0002:000006c0       __xmm@80000000000000008000000000000000 000000018001a6c0     m_BTWFqGYD8aagFTEBQPdwsF.obj
 0002:00000810       __real@3ca0000000000000    000000018001a810     m_FpwZVT78uS5A5Xdp3o5d3.obj
 0002:00000818       __real@3cb0000000000000    000000018001a818     m_FpwZVT78uS5A5Xdp3o5d3.obj
 0002:00000820       __real@3ce269bff1f8c190    000000018001a820     m_FpwZVT78uS5A5Xdp3o5d3.obj
 0002:00000828       __real@3e120d3f686439e4    000000018001a828     m_FpwZVT78uS5A5Xdp3o5d3.obj
 0002:00000830       __real@3e831446f740b9e0    000000018001a830     m_FpwZVT78uS5A5Xdp3o5d3.obj
 0002:00000838       __real@3e8afb74d693bf93    000000018001a838     m_FpwZVT78uS5A5Xdp3o5d3.obj
 0002:00000840       __real@3ef35c2c496374bf    000000018001a840     m_FpwZVT78uS5A5Xdp3o5d3.obj
 0002:00000848       __real@3efc6ec6cc59e02a    000000018001a848     m_FpwZVT78uS5A5Xdp3o5d3.obj
 0002:00000850       __real@3f41f18cbfdf2728    000000018001a850     m_FpwZVT78uS5A5Xdp3o5d3.obj
 0002:00000858       __real@3f49615ac0b7ace9    000000018001a858     m_FpwZVT78uS5A5Xdp3o5d3.obj
 0002:00000860       __real@3f49c8bc979dc5d7    000000018001a860     m_FpwZVT78uS5A5Xdp3o5d3.obj
 0002:00000868       __real@3f545c1908425345    000000018001a868     m_FpwZVT78uS5A5Xdp3o5d3.obj
 0002:00000870       __real@3f8e76f93215462a    000000018001a870     m_FpwZVT78uS5A5Xdp3o5d3.obj
 0002:00000878       __real@3f8f207a7eab17bf    000000018001a878     m_FpwZVT78uS5A5Xdp3o5d3.obj
 0002:00000880       __real@3f9744eb6c45ec67    000000018001a880     m_FpwZVT78uS5A5Xdp3o5d3.obj
 0002:00000888       __real@3f9b2b41193b4ee7    000000018001a888     m_FpwZVT78uS5A5Xdp3o5d3.obj
 0002:00000890       __real@3fc186eb183443fb    000000018001a890     m_FpwZVT78uS5A5Xdp3o5d3.obj
 0002:00000898       __real@3fc2f5123394f040    000000018001a898     m_FpwZVT78uS5A5Xdp3o5d3.obj
 0002:000008a0       __real@3fc71eb851eb851f    000000018001a8a0     m_FpwZVT78uS5A5Xdp3o5d3.obj
 0002:000008a8       __real@3fcef2abb9b85c37    000000018001a8a8     m_FpwZVT78uS5A5Xdp3o5d3.obj
 0002:000008b0       __real@3fd183aa6c20e8bc    000000018001a8b0     m_FpwZVT78uS5A5Xdp3o5d3.obj
 0002:000008b8       __real@3fd2fad9315255cf    000000018001a8b8     m_FpwZVT78uS5A5Xdp3o5d3.obj
 0002:000008c0       __real@3fdb333333333333    000000018001a8c0     m_FpwZVT78uS5A5Xdp3o5d3.obj
 0002:000008c8       __real@3fe0000000000000    000000018001a8c8     m_FpwZVT78uS5A5Xdp3o5d3.obj
 0002:000008d0       __real@3fe331d34fc7d77f    000000018001a8d0     m_FpwZVT78uS5A5Xdp3o5d3.obj
 0002:000008d8       __real@3fe61292f23385c9    000000018001a8d8     m_FpwZVT78uS5A5Xdp3o5d3.obj
 0002:000008e0       __real@3ff453cc085375b2    000000018001a8e0     m_FpwZVT78uS5A5Xdp3o5d3.obj
 0002:000008e8       __real@3ff6a09e667f3bcd    000000018001a8e8     m_FpwZVT78uS5A5Xdp3o5d3.obj
 0002:000008f0       __real@3ff6c665fde9526a    000000018001a8f0     m_FpwZVT78uS5A5Xdp3o5d3.obj
 0002:000008f8       __real@3ff999999999999a    000000018001a8f8     m_FpwZVT78uS5A5Xdp3o5d3.obj
 0002:00000900       __real@3ffad278e6526633    000000018001a900     m_FpwZVT78uS5A5Xdp3o5d3.obj
 0002:00000908       __real@3ffc8ea6461fa445    000000018001a908     m_FpwZVT78uS5A5Xdp3o5d3.obj
 0002:00000910       __real@40006cefbb46a449    000000018001a910     m_FpwZVT78uS5A5Xdp3o5d3.obj
 0002:00000918       __real@400b18d91e9eef75    000000018001a918     m_FpwZVT78uS5A5Xdp3o5d3.obj
 0002:00000920       __real@400d2ecb1a3d02c4    000000018001a920     m_FpwZVT78uS5A5Xdp3o5d3.obj
 0002:00000928       __real@400d3bb48209ad36    000000018001a928     m_FpwZVT78uS5A5Xdp3o5d3.obj
 0002:00000930       __real@4012857748cab19b    000000018001a930     m_FpwZVT78uS5A5Xdp3o5d3.obj
 0002:00000938       __real@4014000000000000    000000018001a938     m_FpwZVT78uS5A5Xdp3o5d3.obj
 0002:00000940       __real@4015daea6e875003    000000018001a940     m_FpwZVT78uS5A5Xdp3o5d3.obj
 0002:00000948       __real@401713f71462256a    000000018001a948     m_FpwZVT78uS5A5Xdp3o5d3.obj
 0002:00000950       __real@401aa1b1c13ee526    000000018001a950     m_FpwZVT78uS5A5Xdp3o5d3.obj
 0002:00000958       __real@4024000000000000    000000018001a958     m_FpwZVT78uS5A5Xdp3o5d3.obj
 0002:00000960       __real@4045281b386e1ab5    000000018001a960     m_FpwZVT78uS5A5Xdp3o5d3.obj
 0002:00000968       __real@404e000000000000    000000018001a968     m_FpwZVT78uS5A5Xdp3o5d3.obj
 0002:00000970       __real@4059000000000000    000000018001a970     m_FpwZVT78uS5A5Xdp3o5d3.obj
 0002:00000978       __real@4060a4888b1a436e    000000018001a978     m_FpwZVT78uS5A5Xdp3o5d3.obj
 0002:00000980       __real@4070000000000000    000000018001a980     m_FpwZVT78uS5A5Xdp3o5d3.obj
 0002:00000988       __real@4076d00000000000    000000018001a988     m_FpwZVT78uS5A5Xdp3o5d3.obj
 0002:00000990       __real@4079000000000000    000000018001a990     m_FpwZVT78uS5A5Xdp3o5d3.obj
 0002:00000998       __real@4085797efdc8b3f7    000000018001a998     m_FpwZVT78uS5A5Xdp3o5d3.obj
 0002:000009a0       __real@409ece5d2213c0cc    000000018001a9a0     m_FpwZVT78uS5A5Xdp3o5d3.obj
 0002:000009a8       __real@40a39a296f7d925e    000000018001a9a8     m_FpwZVT78uS5A5Xdp3o5d3.obj
 0002:000009b0       __real@40ac200000000000    000000018001a9b0     m_FpwZVT78uS5A5Xdp3o5d3.obj
 0002:000009b8       __real@40b46a7eca984b69    000000018001a9b8     m_FpwZVT78uS5A5Xdp3o5d3.obj
 0002:000009c0       __real@40b512322e75c89f    000000018001a9c0     m_FpwZVT78uS5A5Xdp3o5d3.obj
 0002:000009c8       __real@40cad1d8cd4ee71d    000000018001a9c8     m_FpwZVT78uS5A5Xdp3o5d3.obj
 0002:000009d0       __real@40d4b772d5d65266    000000018001a9d0     m_FpwZVT78uS5A5Xdp3o5d3.obj
 0002:000009d8       __real@40dc0e457cb1ae76    000000018001a9d8     m_FpwZVT78uS5A5Xdp3o5d3.obj
 0002:000009e0       __real@40e052d26b2e45e4    000000018001a9e0     m_FpwZVT78uS5A5Xdp3o5d3.obj
 0002:000009e8       __real@40e3317caa64f4be    000000018001a9e8     m_FpwZVT78uS5A5Xdp3o5d3.obj
 0002:000009f0       __real@40e66c3e869b752a    000000018001a9f0     m_FpwZVT78uS5A5Xdp3o5d3.obj
 0002:000009f8       __real@40f06c1c55b78f20    000000018001a9f8     m_FpwZVT78uS5A5Xdp3o5d3.obj
 0002:00000a00       __real@40f5180000000000    000000018001aa00     m_FpwZVT78uS5A5Xdp3o5d3.obj
 0002:00000a08       __real@41607ac000000000    000000018001aa08     m_FpwZVT78uS5A5Xdp3o5d3.obj
 0002:00000a10       __real@4170000000000000    000000018001aa10     m_FpwZVT78uS5A5Xdp3o5d3.obj
 0002:00000a18       __real@4190000000000000    000000018001aa18     m_FpwZVT78uS5A5Xdp3o5d3.obj
 0002:00000a20       __real@41dfffffffc00000    000000018001aa20     m_FpwZVT78uS5A5Xdp3o5d3.obj
 0002:00000a28       __real@41f0000000000000    000000018001aa28     m_FpwZVT78uS5A5Xdp3o5d3.obj
 0002:00000a30       __real@bfe0000000000000    000000018001aa30     m_FpwZVT78uS5A5Xdp3o5d3.obj
 0002:00000a38       __real@c000000000000000    000000018001aa38     m_FpwZVT78uS5A5Xdp3o5d3.obj
 0002:00000a40       DYNAMIC_DIMENSION_DEF      000000018001aa40     commqpsktxrx_cgxe_registry.obj
 0002:00000a58       __real@41602cbca0000000    000000018001aa58     commqpsktxrx_cgxe_registry.obj
 0002:00000a60       __real@419a762c3c000000    000000018001aa60     commqpsktxrx_cgxe_registry.obj
 0002:00000a68       __real@41c5c2ea4a800000    000000018001aa68     commqpsktxrx_cgxe_registry.obj
 0002:00000a70       __real@41c9a38ed8800000    000000018001aa70     commqpsktxrx_cgxe_registry.obj
 0002:00000a78       __real@41cfa763d1000000    000000018001aa78     commqpsktxrx_cgxe_registry.obj
 0002:00000a80       __real@41d004cc3dc00000    000000018001aa80     commqpsktxrx_cgxe_registry.obj
 0002:00000a88       __real@41d094cb56800000    000000018001aa88     commqpsktxrx_cgxe_registry.obj
 0002:00000a90       __real@41da2ad719c00000    000000018001aa90     commqpsktxrx_cgxe_registry.obj
 0002:00000a98       __real@41db026c24800000    000000018001aa98     commqpsktxrx_cgxe_registry.obj
 0002:00000aa0       __real@41dc67f553c00000    000000018001aaa0     commqpsktxrx_cgxe_registry.obj
 0002:00000aa8       __real@41e13401bfc00000    000000018001aaa8     commqpsktxrx_cgxe_registry.obj
 0002:00000ab0       __real@41e2069ed9a00000    000000018001aab0     commqpsktxrx_cgxe_registry.obj
 0002:00000ab8       __real@41e3923f58c00000    000000018001aab8     commqpsktxrx_cgxe_registry.obj
 0002:00000ac0       __real@41e5b0b712600000    000000018001aac0     commqpsktxrx_cgxe_registry.obj
 0002:00000ac8       __real@41e63b3a75600000    000000018001aac8     commqpsktxrx_cgxe_registry.obj
 0002:00000ad0       __real@41e8e20005600000    000000018001aad0     commqpsktxrx_cgxe_registry.obj
 0002:00000ad8       __real@41e8e552b1200000    000000018001aad8     commqpsktxrx_cgxe_registry.obj
 0002:00000ae0       __real@00000000            000000018001aae0     signLib.obj
 0002:00000ae4       __real@3f800000            000000018001aae4     signLib.obj
 0002:00000ae8       __real@bf800000            000000018001aae8     signLib.obj
 0002:00000b00       _pRawDllMain               000000018001ab00     MSVCRT:dll_dllmain.obj
 0002:00000b00       _pDefaultRawDllMain        000000018001ab00     MSVCRT:dll_dllmain.obj
 0002:00000b10       __xmm@ffffffffffffffffffffffffffffffff 000000018001ab10     MSVCRT:utility.obj
 0002:00000b40       _load_config_used          000000018001ab40     MSVCRT:loadcfg.obj
 0002:00000c80       __CastGuardVftablesStart   000000018001ac80     MSVCRT:guard_support.obj
 0002:00000c88       __CastGuardVftablesEnd     000000018001ac88     MSVCRT:guard_support.obj
 0002:00000c90       __volatile_metadata        000000018001ac90     <linker-defined>
 0002:00001088       __rtc_iaa                  000000018001b088     MSVCRT:initsect.obj
 0002:00001090       __rtc_izz                  000000018001b090     MSVCRT:initsect.obj
 0002:00001098       __rtc_taa                  000000018001b098     MSVCRT:initsect.obj
 0002:000010a0       __rtc_tzz                  000000018001b0a0     MSVCRT:initsect.obj
 0002:00001c5c       __IMPORT_DESCRIPTOR_libmx  000000018001bc5c     libmx:libmx.dll
 0002:00001c70       __IMPORT_DESCRIPTOR_libmex 000000018001bc70     libmex:libmex.dll
 0002:00001c84       __IMPORT_DESCRIPTOR_libmwmathutil 000000018001bc84     libmwmathutil:libmwmathutil.dll
 0002:00001c98       __IMPORT_DESCRIPTOR_libemlrt 000000018001bc98     libemlrt:libemlrt.dll
 0002:00001cac       __IMPORT_DESCRIPTOR_libmwcgxert 000000018001bcac     libmwcgxert:libmwcgxert.dll
 0002:00001cc0       __IMPORT_DESCRIPTOR_KERNEL32 000000018001bcc0     kernel32:KERNEL32.dll
 0002:00001cd4       __IMPORT_DESCRIPTOR_VCRUNTIME140 000000018001bcd4     vcruntime:VCRUNTIME140.dll
 0002:00001ce8       __IMPORT_DESCRIPTOR_api-ms-win-crt-heap-l1-1-0 000000018001bce8     ucrt:api-ms-win-crt-heap-l1-1-0.dll
 0002:00001cfc       __IMPORT_DESCRIPTOR_api-ms-win-crt-math-l1-1-0 000000018001bcfc     ucrt:api-ms-win-crt-math-l1-1-0.dll
 0002:00001d10       __IMPORT_DESCRIPTOR_api-ms-win-crt-time-l1-1-0 000000018001bd10     ucrt:api-ms-win-crt-time-l1-1-0.dll
 0002:00001d24       __IMPORT_DESCRIPTOR_api-ms-win-crt-string-l1-1-0 000000018001bd24     ucrt:api-ms-win-crt-string-l1-1-0.dll
 0002:00001d38       __IMPORT_DESCRIPTOR_api-ms-win-crt-stdio-l1-1-0 000000018001bd38     ucrt:api-ms-win-crt-stdio-l1-1-0.dll
 0002:00001d4c       __IMPORT_DESCRIPTOR_api-ms-win-crt-runtime-l1-1-0 000000018001bd4c     ucrt:api-ms-win-crt-runtime-l1-1-0.dll
 0002:00001d60       __NULL_IMPORT_DESCRIPTOR   000000018001bd60     libmx:libmx.dll
 0003:000077e0       DYNAMIC_DIMENSION          00000001800247e0     commqpsktxrx_cgxe_registry.obj
 0003:00009a50       __security_cookie_complement 0000000180026a50     MSVCRT:gs_cookie.obj
 0003:00009a58       __security_cookie          0000000180026a58     MSVCRT:gs_cookie.obj
 0003:00009a60       _fltused                   0000000180026a60     MSVCRT:fltused.obj
 0003:00009a64       __scrt_native_dllmain_reason 0000000180026a64     MSVCRT:utility.obj
 0003:00009a68       __isa_available            0000000180026a68     MSVCRT:cpu_disp.obj
 0003:00009a6c       __isa_enabled              0000000180026a6c     MSVCRT:cpu_disp.obj
 0003:00009a70       __memcpy_nt_iters          0000000180026a70     MSVCRT:cpu_disp.obj
 0003:00009a78       __memset_nt_iters          0000000180026a78     MSVCRT:cpu_disp.obj
 0003:00009a80       __scrt_ucrt_dll_is_in_use  0000000180026a80     MSVCRT:ucrt_stubs.obj
 0003:0000a050       ?__type_info_root_node@@3U__type_info_node@@A 0000000180027050     MSVCRT:tncleanup.obj
 0003:0000a060       ?_OptionsStorage@?1??__local_stdio_printf_options@@9@4_KA 0000000180027060     MSVCRT:default_local_stdio_options.obj
 0003:0000a068       ?_OptionsStorage@?1??__local_stdio_scanf_options@@9@4_KA 0000000180027068     MSVCRT:default_local_stdio_options.obj
 0003:0000a070       __scrt_current_native_startup_state 0000000180027070     MSVCRT:utility.obj
 0003:0000a078       __scrt_native_startup_lock 0000000180027078     MSVCRT:utility.obj
 0003:0000a0b8       __scrt_debugger_hook_flag  00000001800270b8     MSVCRT:utility_desktop.obj
 0003:0000a0c0       __castguard_check_failure_os_handled_fptr 00000001800270c0     MSVCRT:guard_support.obj
 0003:0000a0c8       __favor                    00000001800270c8     MSVCRT:cpu_disp.obj
 0003:0000a0d0       ?_OptionsStorage@?1??__local_stdio_printf_options@@9@9 00000001800270d0     <common>
 0003:0000a0d8       __dyn_tls_init_callback    00000001800270d8     <common>

 entry point at        0001:00017df0

 Static symbols

 0000:00000000       .debug$S                   0000000180000000     commqpsktxrx_cgxe.exp
 0000:fffd7000       _volmd                     0000000180000000     commqpsktxrx_cgxe_registry.obj
 0000:fffd7000       _volmd                     0000000180000000     m_BTWFqGYD8aagFTEBQPdwsF.obj
 0000:fffd7000       _volmd                     0000000180000000     m_FpwZVT78uS5A5Xdp3o5d3.obj
 0000:fffd7000       _volmd                     0000000180000000     MSVCRT:cpu_disp.obj
 0002:fffe6000       __guard_ehcont_?dllmain_dispatch@@YAHQEAUHINSTANCE__@@KQEAX@Z 0000000180000000     MSVCRT:dll_dllmain.obj
 0002:fffe6000       __guard_fids_?dllmain_dispatch@@YAHQEAUHINSTANCE__@@KQEAX@Z 0000000180000000     MSVCRT:dll_dllmain.obj
 0000:fffd7000       _volmd                     0000000180000000     MSVCRT:gs_report.obj
 0000:fffd7000       _volmd                     0000000180000000     MSVCRT:gs_report.obj
 0000:fffd7000       _volmd                     0000000180000000     MSVCRT:gs_report.obj
 0002:fffe6000       __guard_fids__             0000000180000000     MSVCRT:guard_support.obj
 0002:fffe6000       __guard_fids__             0000000180000000     MSVCRT:guard_support.obj
 0002:fffe6000       __guard_fids__guard_icall_checks_enforced 0000000180000000     MSVCRT:guard_support.obj
 0000:fffd7000       _volmd                     0000000180000000     MSVCRT:guard_support.obj
 0000:fffd7000       _volmd                     0000000180000000     MSVCRT:guard_support.obj
 0000:fffd7000       _volmd                     0000000180000000     MSVCRT:guard_support.obj
 0000:fffd7000       _volmd                     0000000180000000     MSVCRT:guard_support.obj
 0000:fffd7000       _volmd                     0000000180000000     MSVCRT:guard_support.obj
 0002:fffe6000       __guard_ehcont___scrt_is_nonwritable_in_current_image 0000000180000000     MSVCRT:utility.obj
 0000:fffd7000       _volmd                     0000000180000000     MSVCRT:utility.obj
 0000:fffd7000       _volmd                     0000000180000000     MSVCRT:utility.obj
 0000:fffd7000       _volmd                     0000000180000000     MSVCRT:utility.obj
 0002:fffe6000       __guard_fids___scrt_set_unhandled_exception_filter 0000000180000000     MSVCRT:utility_desktop.obj
 0000:fffd7000       _volmd                     0000000180000000     MSVCRT:utility_desktop.obj
 0000:00000000       .debug$S                   0000000180000000     vcruntime:VCRUNTIME140.dll
 0000:00000000       .debug$S                   0000000180000000     vcruntime:VCRUNTIME140.dll
 0000:00000000       .debug$S                   0000000180000000     vcruntime:VCRUNTIME140.dll
 0000:00000000       .debug$S                   0000000180000000     vcruntime:VCRUNTIME140.dll
 0000:00000000       .debug$S                   0000000180000000     vcruntime:VCRUNTIME140.dll
 0000:00000000       .debug$S                   0000000180000000     vcruntime:VCRUNTIME140.dll
 0000:00000000       .debug$S                   0000000180000000     vcruntime:VCRUNTIME140.dll
 0000:00000000       .debug$S                   0000000180000000     ucrt:api-ms-win-crt-heap-l1-1-0.dll
 0000:00000000       .debug$S                   0000000180000000     ucrt:api-ms-win-crt-heap-l1-1-0.dll
 0000:00000000       .debug$S                   0000000180000000     ucrt:api-ms-win-crt-heap-l1-1-0.dll
 0000:00000000       .debug$S                   0000000180000000     ucrt:api-ms-win-crt-math-l1-1-0.dll
 0000:00000000       .debug$S                   0000000180000000     ucrt:api-ms-win-crt-math-l1-1-0.dll
 0000:00000000       .debug$S                   0000000180000000     ucrt:api-ms-win-crt-runtime-l1-1-0.dll
 0000:00000000       .debug$S                   0000000180000000     ucrt:api-ms-win-crt-runtime-l1-1-0.dll
 0000:00000000       .debug$S                   0000000180000000     ucrt:api-ms-win-crt-runtime-l1-1-0.dll
 0000:00000000       .debug$S                   0000000180000000     ucrt:api-ms-win-crt-runtime-l1-1-0.dll
 0000:00000000       .debug$S                   0000000180000000     ucrt:api-ms-win-crt-runtime-l1-1-0.dll
 0000:00000000       .debug$S                   0000000180000000     ucrt:api-ms-win-crt-runtime-l1-1-0.dll
 0000:00000000       .debug$S                   0000000180000000     ucrt:api-ms-win-crt-runtime-l1-1-0.dll
 0000:00000000       .debug$S                   0000000180000000     ucrt:api-ms-win-crt-runtime-l1-1-0.dll
 0000:00000000       .debug$S                   0000000180000000     ucrt:api-ms-win-crt-runtime-l1-1-0.dll
 0000:00000000       .debug$S                   0000000180000000     ucrt:api-ms-win-crt-runtime-l1-1-0.dll
 0000:00000000       .debug$S                   0000000180000000     ucrt:api-ms-win-crt-runtime-l1-1-0.dll
 0000:00000000       .debug$S                   0000000180000000     ucrt:api-ms-win-crt-runtime-l1-1-0.dll
 0000:00000000       .debug$S                   0000000180000000     ucrt:api-ms-win-crt-stdio-l1-1-0.dll
 0000:00000000       .debug$S                   0000000180000000     ucrt:api-ms-win-crt-string-l1-1-0.dll
 0000:00000000       .debug$S                   0000000180000000     ucrt:api-ms-win-crt-string-l1-1-0.dll
 0000:00000000       .debug$S                   0000000180000000     ucrt:api-ms-win-crt-time-l1-1-0.dll
 0000:00000000       .debug$S                   0000000180000000     ucrt:api-ms-win-crt-time-l1-1-0.dll
 0000:00000000       .debug$S                   0000000180000000     kernel32:KERNEL32.dll
 0000:00000000       .debug$S                   0000000180000000     kernel32:KERNEL32.dll
 0000:00000000       .debug$S                   0000000180000000     kernel32:KERNEL32.dll
 0000:00000000       .debug$S                   0000000180000000     kernel32:KERNEL32.dll
 0000:00000000       .debug$S                   0000000180000000     kernel32:KERNEL32.dll
 0000:00000000       .debug$S                   0000000180000000     kernel32:KERNEL32.dll
 0000:00000000       .debug$S                   0000000180000000     kernel32:KERNEL32.dll
 0000:00000000       .debug$S                   0000000180000000     kernel32:KERNEL32.dll
 0000:00000000       .debug$S                   0000000180000000     kernel32:KERNEL32.dll
 0000:00000000       .debug$S                   0000000180000000     kernel32:KERNEL32.dll
 0000:00000000       .debug$S                   0000000180000000     kernel32:KERNEL32.dll
 0000:00000000       .debug$S                   0000000180000000     kernel32:KERNEL32.dll
 0000:00000000       .debug$S                   0000000180000000     kernel32:KERNEL32.dll
 0000:00000000       .debug$S                   0000000180000000     kernel32:KERNEL32.dll
 0000:00000000       .debug$S                   0000000180000000     kernel32:KERNEL32.dll
 0000:00000000       .debug$S                   0000000180000000     kernel32:KERNEL32.dll
 0000:00000000       .debug$S                   0000000180000000     kernel32:KERNEL32.dll
 0000:00000000       .debug$S                   0000000180000000     libemlrt:libemlrt.dll
 0000:00000000       .debug$S                   0000000180000000     libemlrt:libemlrt.dll
 0000:00000000       .debug$S                   0000000180000000     libemlrt:libemlrt.dll
 0000:00000000       .debug$S                   0000000180000000     libemlrt:libemlrt.dll
 0000:00000000       .debug$S                   0000000180000000     libemlrt:libemlrt.dll
 0000:00000000       .debug$S                   0000000180000000     libemlrt:libemlrt.dll
 0000:00000000       .debug$S                   0000000180000000     libemlrt:libemlrt.dll
 0000:00000000       .debug$S                   0000000180000000     libemlrt:libemlrt.dll
 0000:00000000       .debug$S                   0000000180000000     libemlrt:libemlrt.dll
 0000:00000000       .debug$S                   0000000180000000     libemlrt:libemlrt.dll
 0000:00000000       .debug$S                   0000000180000000     libemlrt:libemlrt.dll
 0000:00000000       .debug$S                   0000000180000000     libemlrt:libemlrt.dll
 0000:00000000       .debug$S                   0000000180000000     libemlrt:libemlrt.dll
 0000:00000000       .debug$S                   0000000180000000     libemlrt:libemlrt.dll
 0000:00000000       .debug$S                   0000000180000000     libemlrt:libemlrt.dll
 0000:00000000       .debug$S                   0000000180000000     libemlrt:libemlrt.dll
 0000:00000000       .debug$S                   0000000180000000     libemlrt:libemlrt.dll
 0000:00000000       .debug$S                   0000000180000000     libemlrt:libemlrt.dll
 0000:00000000       .debug$S                   0000000180000000     libemlrt:libemlrt.dll
 0000:00000000       .debug$S                   0000000180000000     libemlrt:libemlrt.dll
 0000:00000000       .debug$S                   0000000180000000     libemlrt:libemlrt.dll
 0000:00000000       .debug$S                   0000000180000000     libemlrt:libemlrt.dll
 0000:00000000       .debug$S                   0000000180000000     libemlrt:libemlrt.dll
 0000:00000000       .debug$S                   0000000180000000     libemlrt:libemlrt.dll
 0000:00000000       .debug$S                   0000000180000000     libemlrt:libemlrt.dll
 0000:00000000       .debug$S                   0000000180000000     libemlrt:libemlrt.dll
 0000:00000000       .debug$S                   0000000180000000     libemlrt:libemlrt.dll
 0000:00000000       .debug$S                   0000000180000000     libemlrt:libemlrt.dll
 0000:00000000       .debug$S                   0000000180000000     libmex:libmex.dll
 0000:00000000       .debug$S                   0000000180000000     libmex:libmex.dll
 0000:00000000       .debug$S                   0000000180000000     libmex:libmex.dll
 0000:00000000       .debug$S                   0000000180000000     libmex:libmex.dll
 0000:00000000       .debug$S                   0000000180000000     libmex:libmex.dll
 0000:00000000       .debug$S                   0000000180000000     libmwcgxert:libmwcgxert.dll
 0000:00000000       .debug$S                   0000000180000000     libmwcgxert:libmwcgxert.dll
 0000:00000000       .debug$S                   0000000180000000     libmwcgxert:libmwcgxert.dll
 0000:00000000       .debug$S                   0000000180000000     libmwcgxert:libmwcgxert.dll
 0000:00000000       .debug$S                   0000000180000000     libmwcgxert:libmwcgxert.dll
 0000:00000000       .debug$S                   0000000180000000     libmwcgxert:libmwcgxert.dll
 0000:00000000       .debug$S                   0000000180000000     libmwcgxert:libmwcgxert.dll
 0000:00000000       .debug$S                   0000000180000000     libmwcgxert:libmwcgxert.dll
 0000:00000000       .debug$S                   0000000180000000     libmwcgxert:libmwcgxert.dll
 0000:00000000       .debug$S                   0000000180000000     libmwcgxert:libmwcgxert.dll
 0000:00000000       .debug$S                   0000000180000000     libmwcgxert:libmwcgxert.dll
 0000:00000000       .debug$S                   0000000180000000     libmwcgxert:libmwcgxert.dll
 0000:00000000       .debug$S                   0000000180000000     libmwcgxert:libmwcgxert.dll
 0000:00000000       .debug$S                   0000000180000000     libmwmathutil:libmwmathutil.dll
 0000:00000000       .debug$S                   0000000180000000     libmwmathutil:libmwmathutil.dll
 0000:00000000       .debug$S                   0000000180000000     libmwmathutil:libmwmathutil.dll
 0000:00000000       .debug$S                   0000000180000000     libmwmathutil:libmwmathutil.dll
 0000:00000000       .debug$S                   0000000180000000     libmwmathutil:libmwmathutil.dll
 0000:00000000       .debug$S                   0000000180000000     libmwmathutil:libmwmathutil.dll
 0000:00000000       .debug$S                   0000000180000000     libmwmathutil:libmwmathutil.dll
 0000:00000000       .debug$S                   0000000180000000     libmwmathutil:libmwmathutil.dll
 0000:00000000       .debug$S                   0000000180000000     libmwmathutil:libmwmathutil.dll
 0000:00000000       .debug$S                   0000000180000000     libmwmathutil:libmwmathutil.dll
 0000:00000000       .debug$S                   0000000180000000     libmwmathutil:libmwmathutil.dll
 0000:00000000       .debug$S                   0000000180000000     libmx:libmx.dll
 0000:00000000       .debug$S                   0000000180000000     libmx:libmx.dll
 0000:00000000       .debug$S                   0000000180000000     libmx:libmx.dll
 0000:00000000       .debug$S                   0000000180000000     libmx:libmx.dll
 0000:00000000       .debug$S                   0000000180000000     libmx:libmx.dll
 0000:00000000       .debug$S                   0000000180000000     libmx:libmx.dll
 0000:00000000       .debug$S                   0000000180000000     libmx:libmx.dll
 0000:00000000       .debug$S                   0000000180000000     libmx:libmx.dll
 0000:00000000       .debug$S                   0000000180000000     libmx:libmx.dll
 0000:00000000       .debug$S                   0000000180000000     libmx:libmx.dll
 0000:00000000       .debug$S                   0000000180000000     libmx:libmx.dll
 0000:00000000       .debug$S                   0000000180000000     libmx:libmx.dll
 0000:00000000       .debug$S                   0000000180000000     libmx:libmx.dll
 0000:00000000       .debug$S                   0000000180000000     libmx:libmx.dll
 0000:00000000       .debug$S                   0000000180000000     libmx:libmx.dll
 0000:00000000       .debug$S                   0000000180000000     libmx:libmx.dll
 0000:00000000       .debug$S                   0000000180000000     libmx:libmx.dll
 0000:00000000       .debug$S                   0000000180000000     libmx:libmx.dll
 0000:00000000       .debug$S                   0000000180000000     libmx:libmx.dll
 0000:00000000       .debug$S                   0000000180000000     libmx:libmx.dll
 0000:fffd7010       _volmd                     0000000180000010     commqpsktxrx_cgxe_registry.obj
 0000:fffd7010       _volmd                     0000000180000010     m_BTWFqGYD8aagFTEBQPdwsF.obj
 0000:fffd7010       _volmd                     0000000180000010     m_FpwZVT78uS5A5Xdp3o5d3.obj
 0000:fffd7020       _volmd                     0000000180000020     commqpsktxrx_cgxe_registry.obj
 0000:fffd7020       _volmd                     0000000180000020     m_BTWFqGYD8aagFTEBQPdwsF.obj
 0000:fffd7020       _volmd                     0000000180000020     m_FpwZVT78uS5A5Xdp3o5d3.obj
 0000:fffd7030       _volmd                     0000000180000030     commqpsktxrx_cgxe_registry.obj
 0000:fffd7030       _volmd                     0000000180000030     m_BTWFqGYD8aagFTEBQPdwsF.obj
 0000:fffd7030       _volmd                     0000000180000030     m_FpwZVT78uS5A5Xdp3o5d3.obj
 0000:fffd7040       _volmd                     0000000180000040     commqpsktxrx_cgxe_registry.obj
 0000:fffd7040       _volmd                     0000000180000040     m_BTWFqGYD8aagFTEBQPdwsF.obj
 0000:fffd7040       _volmd                     0000000180000040     m_FpwZVT78uS5A5Xdp3o5d3.obj
 0000:fffd7050       _volmd                     0000000180000050     commqpsktxrx_cgxe_registry.obj
 0000:fffd7050       _volmd                     0000000180000050     m_BTWFqGYD8aagFTEBQPdwsF.obj
 0000:fffd7050       _volmd                     0000000180000050     m_FpwZVT78uS5A5Xdp3o5d3.obj
 0000:fffd7060       _volmd                     0000000180000060     commqpsktxrx_cgxe_registry.obj
 0000:fffd7060       _volmd                     0000000180000060     m_BTWFqGYD8aagFTEBQPdwsF.obj
 0000:fffd7060       _volmd                     0000000180000060     m_FpwZVT78uS5A5Xdp3o5d3.obj
 0000:fffd7070       _volmd                     0000000180000070     commqpsktxrx_cgxe_registry.obj
 0000:fffd7070       _volmd                     0000000180000070     m_BTWFqGYD8aagFTEBQPdwsF.obj
 0000:fffd7070       _volmd                     0000000180000070     m_FpwZVT78uS5A5Xdp3o5d3.obj
 0000:fffd7080       _volmd                     0000000180000080     commqpsktxrx_cgxe_registry.obj
 0000:fffd7080       _volmd                     0000000180000080     m_BTWFqGYD8aagFTEBQPdwsF.obj
 0000:fffd7080       _volmd                     0000000180000080     m_FpwZVT78uS5A5Xdp3o5d3.obj
 0000:fffd7090       _volmd                     0000000180000090     commqpsktxrx_cgxe_registry.obj
 0000:fffd7090       _volmd                     0000000180000090     m_BTWFqGYD8aagFTEBQPdwsF.obj
 0000:fffd7090       _volmd                     0000000180000090     m_FpwZVT78uS5A5Xdp3o5d3.obj
 0000:fffd70a0       _volmd                     00000001800000a0     commqpsktxrx_cgxe_registry.obj
 0000:fffd70a0       _volmd                     00000001800000a0     m_BTWFqGYD8aagFTEBQPdwsF.obj
 0000:fffd70a0       _volmd                     00000001800000a0     m_FpwZVT78uS5A5Xdp3o5d3.obj
 0000:fffd70b0       _volmd                     00000001800000b0     commqpsktxrx_cgxe_registry.obj
 0000:fffd70b0       _volmd                     00000001800000b0     m_BTWFqGYD8aagFTEBQPdwsF.obj
 0000:fffd70b0       _volmd                     00000001800000b0     m_FpwZVT78uS5A5Xdp3o5d3.obj
 0000:fffd70c0       _volmd                     00000001800000c0     commqpsktxrx_cgxe_registry.obj
 0000:fffd70c0       _volmd                     00000001800000c0     m_BTWFqGYD8aagFTEBQPdwsF.obj
 0000:fffd70d0       _volmd                     00000001800000d0     commqpsktxrx_cgxe_registry.obj
 0000:fffd70d0       _volmd                     00000001800000d0     m_BTWFqGYD8aagFTEBQPdwsF.obj
 0000:fffd70e0       _volmd                     00000001800000e0     commqpsktxrx_cgxe_registry.obj
 0000:fffd70e0       _volmd                     00000001800000e0     m_BTWFqGYD8aagFTEBQPdwsF.obj
 0000:fffd70f0       _volmd                     00000001800000f0     m_BTWFqGYD8aagFTEBQPdwsF.obj
 0000:fffd7100       _volmd                     0000000180000100     m_BTWFqGYD8aagFTEBQPdwsF.obj
 0001:000001d0       cgxe_mdl_start             00000001800011d0 f   m_BTWFqGYD8aagFTEBQPdwsF.obj
 0001:000003f0       cgxe_mdl_initialize        00000001800013f0 f   m_BTWFqGYD8aagFTEBQPdwsF.obj
 0001:000004f0       cgxe_mdl_outputs           00000001800014f0 f   m_BTWFqGYD8aagFTEBQPdwsF.obj
 0001:00000810       cgxe_mdl_update            0000000180001810 f   m_BTWFqGYD8aagFTEBQPdwsF.obj
 0001:00000820       cgxe_mdl_derivative        0000000180001820 f   m_BTWFqGYD8aagFTEBQPdwsF.obj
 0001:00000830       cgxe_mdl_enable            0000000180001830 f   m_BTWFqGYD8aagFTEBQPdwsF.obj
 0001:00000840       cgxe_mdl_disable           0000000180001840 f   m_BTWFqGYD8aagFTEBQPdwsF.obj
 0001:00000850       cgxe_mdl_terminate         0000000180001850 f   m_BTWFqGYD8aagFTEBQPdwsF.obj
 0001:000008a0       mw__internal__call__setup  00000001800018a0 f   m_BTWFqGYD8aagFTEBQPdwsF.obj
 0001:00000bb0       CarrierSynchronizer_CarrierSynchronizer 0000000180001bb0 f   m_BTWFqGYD8aagFTEBQPdwsF.obj
 0001:00000c50       CarrierSynchronizer_set_SamplesPerSymbol 0000000180001c50 f   m_BTWFqGYD8aagFTEBQPdwsF.obj
 0001:00001760       CarrierSynchronizer_set_DampingFactor 0000000180002760 f   m_BTWFqGYD8aagFTEBQPdwsF.obj
 0001:00001fb0       CarrierSynchronizer_set_NormalizedLoopBandwidth 0000000180002fb0 f   m_BTWFqGYD8aagFTEBQPdwsF.obj
 0001:00002e90       SystemCore_setup           0000000180003e90 f   m_BTWFqGYD8aagFTEBQPdwsF.obj
 0001:000034c0       SystemCore_checkTunablePropChange 00000001800044c0 f   m_BTWFqGYD8aagFTEBQPdwsF.obj
 0001:000036c0       mw__internal__call__reset  00000001800046c0 f   m_BTWFqGYD8aagFTEBQPdwsF.obj
 0001:00003e70       mw__internal__call__step   0000000180004e70 f   m_BTWFqGYD8aagFTEBQPdwsF.obj
 0001:00004040       mw__internal__system___fcn 0000000180005040 f   m_BTWFqGYD8aagFTEBQPdwsF.obj
 0001:00004dc0       CarrierSynchronizer_stepImpl 0000000180005dc0 f   m_BTWFqGYD8aagFTEBQPdwsF.obj
 0001:000050e0       expFunc                    00000001800060e0 f   m_BTWFqGYD8aagFTEBQPdwsF.obj
 0001:00005170       emlrt_marshallOut          0000000180006170 f   m_BTWFqGYD8aagFTEBQPdwsF.obj
 0001:00005c50       cgxe_mdl_get_sim_state     0000000180006c50 f   m_BTWFqGYD8aagFTEBQPdwsF.obj
 0001:00005cc0       emlrt_marshallIn           0000000180006cc0 f   m_BTWFqGYD8aagFTEBQPdwsF.obj
 0001:00005da0       b_emlrt_marshallIn         0000000180006da0 f   m_BTWFqGYD8aagFTEBQPdwsF.obj
 0001:00005e10       c_emlrt_marshallIn         0000000180006e10 f   m_BTWFqGYD8aagFTEBQPdwsF.obj
 0001:000065f0       d_emlrt_marshallIn         00000001800075f0 f   m_BTWFqGYD8aagFTEBQPdwsF.obj
 0001:00006640       e_emlrt_marshallIn         0000000180007640 f   m_BTWFqGYD8aagFTEBQPdwsF.obj
 0001:00006690       f_emlrt_marshallIn         0000000180007690 f   m_BTWFqGYD8aagFTEBQPdwsF.obj
 0001:000067a0       g_emlrt_marshallIn         00000001800077a0 f   m_BTWFqGYD8aagFTEBQPdwsF.obj
 0001:000067f0       h_emlrt_marshallIn         00000001800077f0 f   m_BTWFqGYD8aagFTEBQPdwsF.obj
 0001:00006840       i_emlrt_marshallIn         0000000180007840 f   m_BTWFqGYD8aagFTEBQPdwsF.obj
 0001:00006890       j_emlrt_marshallIn         0000000180007890 f   m_BTWFqGYD8aagFTEBQPdwsF.obj
 0001:00006940       k_emlrt_marshallIn         0000000180007940 f   m_BTWFqGYD8aagFTEBQPdwsF.obj
 0001:00006990       l_emlrt_marshallIn         0000000180007990 f   m_BTWFqGYD8aagFTEBQPdwsF.obj
 0001:00006a00       cgxe_mdl_set_sim_state     0000000180007a00 f   m_BTWFqGYD8aagFTEBQPdwsF.obj
 0001:00006a70       message                    0000000180007a70 f   m_BTWFqGYD8aagFTEBQPdwsF.obj
 0001:00006b10       getString                  0000000180007b10 f   m_BTWFqGYD8aagFTEBQPdwsF.obj
 0001:00006b80       error                      0000000180007b80 f   m_BTWFqGYD8aagFTEBQPdwsF.obj
 0001:00006c10       b_message                  0000000180007c10 f   m_BTWFqGYD8aagFTEBQPdwsF.obj
 0001:00006d00       c_message                  0000000180007d00 f   m_BTWFqGYD8aagFTEBQPdwsF.obj
 0001:00006d70       m_emlrt_marshallIn         0000000180007d70 f   m_BTWFqGYD8aagFTEBQPdwsF.obj
 0001:00006de0       n_emlrt_marshallIn         0000000180007de0 f   m_BTWFqGYD8aagFTEBQPdwsF.obj
 0001:00006e60       o_emlrt_marshallIn         0000000180007e60 f   m_BTWFqGYD8aagFTEBQPdwsF.obj
 0001:00006f20       p_emlrt_marshallIn         0000000180007f20 f   m_BTWFqGYD8aagFTEBQPdwsF.obj
 0001:00006fc0       q_emlrt_marshallIn         0000000180007fc0 f   m_BTWFqGYD8aagFTEBQPdwsF.obj
 0001:00007040       r_emlrt_marshallIn         0000000180008040 f   m_BTWFqGYD8aagFTEBQPdwsF.obj
 0001:00007120       s_emlrt_marshallIn         0000000180008120 f   m_BTWFqGYD8aagFTEBQPdwsF.obj
 0001:000071b0       carrierSyncCore            00000001800081b0 f   m_BTWFqGYD8aagFTEBQPdwsF.obj
 0001:000079a0       init_simulink_io_address   00000001800089a0 f   m_BTWFqGYD8aagFTEBQPdwsF.obj
 0001:00007a40       mdlOutputs_BTWFqGYD8aagFTEBQPdwsF 0000000180008a40 f   m_BTWFqGYD8aagFTEBQPdwsF.obj
 0001:00007a80       mdlInitialize_BTWFqGYD8aagFTEBQPdwsF 0000000180008a80 f   m_BTWFqGYD8aagFTEBQPdwsF.obj
 0001:00007ab0       mdlUpdate_BTWFqGYD8aagFTEBQPdwsF 0000000180008ab0 f   m_BTWFqGYD8aagFTEBQPdwsF.obj
 0001:00007af0       mdlDerivatives_BTWFqGYD8aagFTEBQPdwsF 0000000180008af0 f   m_BTWFqGYD8aagFTEBQPdwsF.obj
 0001:00007b20       getSimState_BTWFqGYD8aagFTEBQPdwsF 0000000180008b20 f   m_BTWFqGYD8aagFTEBQPdwsF.obj
 0001:00007b60       setSimState_BTWFqGYD8aagFTEBQPdwsF 0000000180008b60 f   m_BTWFqGYD8aagFTEBQPdwsF.obj
 0001:00007ba0       mdlTerminate_BTWFqGYD8aagFTEBQPdwsF 0000000180008ba0 f   m_BTWFqGYD8aagFTEBQPdwsF.obj
 0001:00007be0       mdlEnable_BTWFqGYD8aagFTEBQPdwsF 0000000180008be0 f   m_BTWFqGYD8aagFTEBQPdwsF.obj
 0001:00007c10       mdlDisable_BTWFqGYD8aagFTEBQPdwsF 0000000180008c10 f   m_BTWFqGYD8aagFTEBQPdwsF.obj
 0001:00007c40       mdlStart_BTWFqGYD8aagFTEBQPdwsF 0000000180008c40 f   m_BTWFqGYD8aagFTEBQPdwsF.obj
 0001:00007d50       mdlProcessParameters_BTWFqGYD8aagFTEBQPdwsF 0000000180008d50 f   m_BTWFqGYD8aagFTEBQPdwsF.obj
 0001:000081c0       localtime                  00000001800091c0 f   m_FpwZVT78uS5A5Xdp3o5d3.obj
 0001:000081e0       time                       00000001800091e0 f   m_FpwZVT78uS5A5Xdp3o5d3.obj
 0001:00008250       cgxe_mdl_start             0000000180009250 f   m_FpwZVT78uS5A5Xdp3o5d3.obj
 0001:00008340       cgxe_mdl_initialize        0000000180009340 f   m_FpwZVT78uS5A5Xdp3o5d3.obj
 0001:00008420       cgxe_mdl_outputs           0000000180009420 f   m_FpwZVT78uS5A5Xdp3o5d3.obj
 0001:00008500       cgxe_mdl_update            0000000180009500 f   m_FpwZVT78uS5A5Xdp3o5d3.obj
 0001:00008510       cgxe_mdl_derivative        0000000180009510 f   m_FpwZVT78uS5A5Xdp3o5d3.obj
 0001:00008520       cgxe_mdl_enable            0000000180009520 f   m_FpwZVT78uS5A5Xdp3o5d3.obj
 0001:00008530       cgxe_mdl_disable           0000000180009530 f   m_FpwZVT78uS5A5Xdp3o5d3.obj
 0001:00008540       cgxe_mdl_terminate         0000000180009540 f   m_FpwZVT78uS5A5Xdp3o5d3.obj
 0001:00008590       mw__internal__system__init__fcn 0000000180009590 f   m_FpwZVT78uS5A5Xdp3o5d3.obj
 0001:00008680       mw__internal__call__setup  0000000180009680 f   m_FpwZVT78uS5A5Xdp3o5d3.obj
 0001:000088b0       AWGNChannelBase_set_EbNo   00000001800098b0 f   m_FpwZVT78uS5A5Xdp3o5d3.obj
 0001:00008be0       AWGNChannelBase_set_SignalPower 0000000180009be0 f   m_FpwZVT78uS5A5Xdp3o5d3.obj
 0001:00009430       SystemCore_setup           000000018000a430 f   m_FpwZVT78uS5A5Xdp3o5d3.obj
 0001:0000a0f0       now                        000000018000b0f0 f   m_FpwZVT78uS5A5Xdp3o5d3.obj
 0001:0000a520       b_mod                      000000018000b520 f   m_FpwZVT78uS5A5Xdp3o5d3.obj
 0001:0000a5e0       mt19937ar_reset            000000018000b5e0 f   m_FpwZVT78uS5A5Xdp3o5d3.obj
 0001:0000a6b0       maximum                    000000018000b6b0 f   m_FpwZVT78uS5A5Xdp3o5d3.obj
 0001:0000a7e0       AWGNChannelBase_getStandardDeviation 000000018000b7e0 f   m_FpwZVT78uS5A5Xdp3o5d3.obj
 0001:0000ab40       SystemCore_checkTunablePropChange 000000018000bb40 f   m_FpwZVT78uS5A5Xdp3o5d3.obj
 0001:0000ad40       mw__internal__call__reset  000000018000bd40 f   m_FpwZVT78uS5A5Xdp3o5d3.obj
 0001:0000b420       mw__internal__call__step   000000018000c420 f   m_FpwZVT78uS5A5Xdp3o5d3.obj
 0001:0000bcc0       AWGNChannelBase_stepImpl   000000018000ccc0 f   m_FpwZVT78uS5A5Xdp3o5d3.obj
 0001:0000c220       AWGNChannel_randomDataLocal 000000018000d220 f   m_FpwZVT78uS5A5Xdp3o5d3.obj
 0001:0000c860       mt19937ar_mtziggurat       000000018000d860 f   m_FpwZVT78uS5A5Xdp3o5d3.obj
 0001:0000cb00       mt19937ar_genrand_uint32_vector 000000018000db00 f   m_FpwZVT78uS5A5Xdp3o5d3.obj
 0001:0000cdc0       mt19937ar_genrandu         000000018000ddc0 f   m_FpwZVT78uS5A5Xdp3o5d3.obj
 0001:0000d0b0       is_valid_state             000000018000e0b0 f   m_FpwZVT78uS5A5Xdp3o5d3.obj
 0001:0000d160       RandStream_zigguratGenrandn 000000018000e160 f   m_FpwZVT78uS5A5Xdp3o5d3.obj
 0001:0000d400       RandStream_rand            000000018000e400 f   m_FpwZVT78uS5A5Xdp3o5d3.obj
 0001:0000d4d0       b_mt19937ar_genrandu       000000018000e4d0 f   m_FpwZVT78uS5A5Xdp3o5d3.obj
 0001:0000d7c0       b_RandStream_rand          000000018000e7c0 f   m_FpwZVT78uS5A5Xdp3o5d3.obj
 0001:0000d840       RandStream_polarGenrandn   000000018000e840 f   m_FpwZVT78uS5A5Xdp3o5d3.obj
 0001:0000d9c0       RandStream_inversionGenrandn 000000018000e9c0 f   m_FpwZVT78uS5A5Xdp3o5d3.obj
 0001:0000ddf0       message                    000000018000edf0 f   m_FpwZVT78uS5A5Xdp3o5d3.obj
 0001:0000de90       getString                  000000018000ee90 f   m_FpwZVT78uS5A5Xdp3o5d3.obj
 0001:0000df00       error                      000000018000ef00 f   m_FpwZVT78uS5A5Xdp3o5d3.obj
 0001:0000df90       b_message                  000000018000ef90 f   m_FpwZVT78uS5A5Xdp3o5d3.obj
 0001:0000e000       init_simulink_io_address   000000018000f000 f   m_FpwZVT78uS5A5Xdp3o5d3.obj
 0001:0000e070       mdlOutputs_FpwZVT78uS5A5Xdp3o5d3 000000018000f070 f   m_FpwZVT78uS5A5Xdp3o5d3.obj
 0001:0000e0b0       mdlInitialize_FpwZVT78uS5A5Xdp3o5d3 000000018000f0b0 f   m_FpwZVT78uS5A5Xdp3o5d3.obj
 0001:0000e0e0       mdlUpdate_FpwZVT78uS5A5Xdp3o5d3 000000018000f0e0 f   m_FpwZVT78uS5A5Xdp3o5d3.obj
 0001:0000e120       mdlDerivatives_FpwZVT78uS5A5Xdp3o5d3 000000018000f120 f   m_FpwZVT78uS5A5Xdp3o5d3.obj
 0001:0000e150       mdlTerminate_FpwZVT78uS5A5Xdp3o5d3 000000018000f150 f   m_FpwZVT78uS5A5Xdp3o5d3.obj
 0001:0000e190       mdlEnable_FpwZVT78uS5A5Xdp3o5d3 000000018000f190 f   m_FpwZVT78uS5A5Xdp3o5d3.obj
 0001:0000e1c0       mdlDisable_FpwZVT78uS5A5Xdp3o5d3 000000018000f1c0 f   m_FpwZVT78uS5A5Xdp3o5d3.obj
 0001:0000e1f0       mdlStart_FpwZVT78uS5A5Xdp3o5d3 000000018000f1f0 f   m_FpwZVT78uS5A5Xdp3o5d3.obj
 0001:0000e300       mdlProcessParameters_FpwZVT78uS5A5Xdp3o5d3 000000018000f300 f   m_FpwZVT78uS5A5Xdp3o5d3.obj
 0001:000103dc       $LN147                     00000001800113dc     commqpsktxrx_cgxe_registry.obj
 0001:00011244       $LN22                      0000000180012244     commqpsktxrx_cgxe_registry.obj
 0001:00011944       $LN26                      0000000180012944     commqpsktxrx_cgxe_registry.obj
 0001:00012024       $LN24                      0000000180013024     commqpsktxrx_cgxe_registry.obj
 0001:00012d5c       $LN30                      0000000180013d5c     commqpsktxrx_cgxe_registry.obj
 0001:00015740       mdlStart                   0000000180016740 f   commqpsktxrx_cgxe_registry.obj
 0001:00015780       mdlInitializeConditions    0000000180016780 f   commqpsktxrx_cgxe_registry.obj
 0001:000157a0       mdlUpdate                  00000001800167a0 f   commqpsktxrx_cgxe_registry.obj
 0001:000157d0       mdlOutputs                 00000001800167d0 f   commqpsktxrx_cgxe_registry.obj
 0001:00015800       mdlTerminate               0000000180016800 f   commqpsktxrx_cgxe_registry.obj
 0001:00015820       mdlInitializeSizes         0000000180016820 f   commqpsktxrx_cgxe_registry.obj
 0001:00015830       mdlInitializeSampleTimes   0000000180016830 f   commqpsktxrx_cgxe_registry.obj
 0001:00015840       cgxe_get_supported_modules 0000000180016840 f   commqpsktxrx_cgxe_registry.obj
 0001:000159a0       cgxe_process_get_checksums 00000001800169a0 f   commqpsktxrx_cgxe_registry.obj
 0001:00015d30       cgxe_mex_unlock_call       0000000180016d30 f   commqpsktxrx_cgxe_registry.obj
 0001:00015d70       cgxe_unpack_simstruct      0000000180016d70 f   commqpsktxrx_cgxe_registry.obj
 0001:00015e10       cgxe_get_sim_state         0000000180016e10 f   commqpsktxrx_cgxe_registry.obj
 0001:00015e80       cgxe_set_sim_state         0000000180016e80 f   commqpsktxrx_cgxe_registry.obj
 0001:00015f00       cgxe_get_BuildInfoUpdate   0000000180016f00 f   commqpsktxrx_cgxe_registry.obj
 0001:00016000       cgxe_get_fallback_info     0000000180017000 f   commqpsktxrx_cgxe_registry.obj
 0001:00016100       ProcessMexSfunctionCmdLineCall 0000000180017100 f   commqpsktxrx_cgxe_registry.obj
 0001:00016330       mdlZeroCrossings           0000000180017330 f   commqpsktxrx_cgxe_registry.obj
 0001:00016380       mdlGetTimeOfNextVarHit     0000000180017380 f   commqpsktxrx_cgxe_registry.obj
 0001:000163d0       _RegNumInputPortsCB        00000001800173d0 f   commqpsktxrx_cgxe_registry.obj
 0001:00016450       _RegNumOutputPortsCB       0000000180017450 f   commqpsktxrx_cgxe_registry.obj
 0001:000164d0       _CreateSimStruct           00000001800174d0 f   commqpsktxrx_cgxe_registry.obj
 0001:00016700       _ProcessMexSfunctionCmdLineCall 0000000180017700 f   commqpsktxrx_cgxe_registry.obj
 0001:00017090       ReportIndexOutOfBoundsError 0000000180018090 f   commqpsktxrx_cgxe_registry.obj
 0001:00017670       $$000000                   0000000180018670     MSVCRT:chkstk.obj
 0001:000176d0       $$000000                   00000001800186d0     MSVCRT:amdsecgs.obj
 0001:000179c8       capture_current_context    00000001800189c8 f   MSVCRT:gs_report.obj
 0001:00017a38       capture_previous_context   0000000180018a38 f   MSVCRT:gs_report.obj
 0001:00017aac       ?dllmain_crt_dispatch@@YAHQEAUHINSTANCE__@@KQEAX@Z 0000000180018aac f   MSVCRT:dll_dllmain.obj
 0001:00017afc       ?dllmain_crt_process_attach@@YAHQEAUHINSTANCE__@@QEAX@Z 0000000180018afc f   MSVCRT:dll_dllmain.obj
 0001:00017c14       ?dllmain_crt_process_detach@@YAH_N@Z 0000000180018c14 f   MSVCRT:dll_dllmain.obj
 0001:00017c98       ?dllmain_dispatch@@YAHQEAUHINSTANCE__@@KQEAX@Z 0000000180018c98 f   MSVCRT:dll_dllmain.obj
 0001:00017dcc       ?dllmain_raw@@YAHQEAUHINSTANCE__@@KQEAX@Z 0000000180018dcc f   MSVCRT:dll_dllmain.obj
 0001:00017e30       __get_entropy              0000000180018e30 f   MSVCRT:gs_support.obj
 0001:00017fc0       ?find_pe_section@@YAPEAU_IMAGE_SECTION_HEADER@@QEAE_K@Z 0000000180018fc0 f   MSVCRT:utility.obj
 0001:00018014       ?is_potentially_valid_image_base@@YA_NQEAX@Z 0000000180019014 f   MSVCRT:utility.obj
 0001:00018760       __castguard_compat_check   0000000180019760 f   MSVCRT:guard_support.obj
 0001:0001884c       __castguard_slow_path_compat_check 000000018001984c f   MSVCRT:guard_support.obj
 0001:00018b70       $$000000                   0000000180019b70     MSVCRT:guard_dispatch.obj
 0001:00018b90       $$000000                   0000000180019b90     MSVCRT:guard_xfg_dispatch.obj
 0001:00018ba6       ?fin$0@?0??dllmain_crt_process_attach@@YAHQEAUHINSTANCE__@@QEAX@Z@4HA 0000000180019ba6 f   MSVCRT:dll_dllmain.obj
 0001:00018bbd       ?fin$0@?0??dllmain_crt_process_detach@@YAH_N@Z@4HA 0000000180019bbd f   MSVCRT:dll_dllmain.obj
 0001:00018bd6       ?fin$1@?0??dllmain_crt_process_detach@@YAH_N@Z@4HA 0000000180019bd6 f   MSVCRT:dll_dllmain.obj
 0001:00018bea       ?filt$0@?0??dllmain_dispatch@@YAHQEAUHINSTANCE__@@KQEAX@Z@4HA 0000000180019bea f   MSVCRT:dll_dllmain.obj
 0001:00018c20       __scrt_is_nonwritable_in_current_image$filt$0 0000000180019c20 f   MSVCRT:utility.obj
 0002:000004b0       ?dims@?1??f_emlrt_marshallIn@@9@9 000000018001a4b0     m_BTWFqGYD8aagFTEBQPdwsF.obj
 0002:000004b4       ?dims@?1??m_emlrt_marshallIn@@9@9 000000018001a4b4     m_BTWFqGYD8aagFTEBQPdwsF.obj
 0002:000004b8       ?dims@?1??n_emlrt_marshallIn@@9@9 000000018001a4b8     m_BTWFqGYD8aagFTEBQPdwsF.obj
 0002:000004bc       ?dims@?1??q_emlrt_marshallIn@@9@9 000000018001a4bc     m_BTWFqGYD8aagFTEBQPdwsF.obj
 0002:000004c0       ?dims@?1??o_emlrt_marshallIn@@9@9 000000018001a4c0     m_BTWFqGYD8aagFTEBQPdwsF.obj
 0002:000004c8       ?dims@?1??p_emlrt_marshallIn@@9@9 000000018001a4c8     m_BTWFqGYD8aagFTEBQPdwsF.obj
 0002:000004d0       ?dims@?1??r_emlrt_marshallIn@@9@9 000000018001a4d0     m_BTWFqGYD8aagFTEBQPdwsF.obj
 0002:000004d4       ?dims@?1??c_emlrt_marshallIn@@9@9 000000018001a4d4     m_BTWFqGYD8aagFTEBQPdwsF.obj
 0002:000004d8       ?dims@?1??s_emlrt_marshallIn@@9@9 000000018001a4d8     m_BTWFqGYD8aagFTEBQPdwsF.obj
 0002:000004e0       ?iv@?1??CarrierSynchronizer_set_SamplesPerSymbol@@9@9 000000018001a4e0     m_BTWFqGYD8aagFTEBQPdwsF.obj
 0002:000004e8       ?iv1@?1??CarrierSynchronizer_set_SamplesPerSymbol@@9@9 000000018001a4e8     m_BTWFqGYD8aagFTEBQPdwsF.obj
 0002:000004f0       ?iv10@?1??CarrierSynchronizer_set_SamplesPerSymbol@@9@9 000000018001a4f0     m_BTWFqGYD8aagFTEBQPdwsF.obj
 0002:000004f8       ?iv11@?1??CarrierSynchronizer_set_SamplesPerSymbol@@9@9 000000018001a4f8     m_BTWFqGYD8aagFTEBQPdwsF.obj
 0002:00000500       ?iv2@?1??CarrierSynchronizer_set_SamplesPerSymbol@@9@9 000000018001a500     m_BTWFqGYD8aagFTEBQPdwsF.obj
 0002:00000508       ?iv3@?1??CarrierSynchronizer_set_SamplesPerSymbol@@9@9 000000018001a508     m_BTWFqGYD8aagFTEBQPdwsF.obj
 0002:00000510       ?iv4@?1??CarrierSynchronizer_set_SamplesPerSymbol@@9@9 000000018001a510     m_BTWFqGYD8aagFTEBQPdwsF.obj
 0002:00000518       ?iv5@?1??CarrierSynchronizer_set_SamplesPerSymbol@@9@9 000000018001a518     m_BTWFqGYD8aagFTEBQPdwsF.obj
 0002:00000520       ?iv6@?1??CarrierSynchronizer_set_SamplesPerSymbol@@9@9 000000018001a520     m_BTWFqGYD8aagFTEBQPdwsF.obj
 0002:00000528       ?iv7@?1??CarrierSynchronizer_set_SamplesPerSymbol@@9@9 000000018001a528     m_BTWFqGYD8aagFTEBQPdwsF.obj
 0002:00000530       ?iv8@?1??CarrierSynchronizer_set_SamplesPerSymbol@@9@9 000000018001a530     m_BTWFqGYD8aagFTEBQPdwsF.obj
 0002:00000538       ?iv9@?1??CarrierSynchronizer_set_SamplesPerSymbol@@9@9 000000018001a538     m_BTWFqGYD8aagFTEBQPdwsF.obj
 0002:00000540       ?iv@?1??CarrierSynchronizer_set_DampingFactor@@9@9 000000018001a540     m_BTWFqGYD8aagFTEBQPdwsF.obj
 0002:00000548       ?iv1@?1??CarrierSynchronizer_set_DampingFactor@@9@9 000000018001a548     m_BTWFqGYD8aagFTEBQPdwsF.obj
 0002:00000550       ?iv2@?1??CarrierSynchronizer_set_DampingFactor@@9@9 000000018001a550     m_BTWFqGYD8aagFTEBQPdwsF.obj
 0002:00000558       ?iv3@?1??CarrierSynchronizer_set_DampingFactor@@9@9 000000018001a558     m_BTWFqGYD8aagFTEBQPdwsF.obj
 0002:00000560       ?iv4@?1??CarrierSynchronizer_set_DampingFactor@@9@9 000000018001a560     m_BTWFqGYD8aagFTEBQPdwsF.obj
 0002:00000568       ?iv5@?1??CarrierSynchronizer_set_DampingFactor@@9@9 000000018001a568     m_BTWFqGYD8aagFTEBQPdwsF.obj
 0002:00000570       ?iv6@?1??CarrierSynchronizer_set_DampingFactor@@9@9 000000018001a570     m_BTWFqGYD8aagFTEBQPdwsF.obj
 0002:00000578       ?iv7@?1??CarrierSynchronizer_set_DampingFactor@@9@9 000000018001a578     m_BTWFqGYD8aagFTEBQPdwsF.obj
 0002:00000580       ?iv8@?1??CarrierSynchronizer_set_DampingFactor@@9@9 000000018001a580     m_BTWFqGYD8aagFTEBQPdwsF.obj
 0002:00000588       ?iv@?1??CarrierSynchronizer_set_NormalizedLoopBandwidth@@9@9 000000018001a588     m_BTWFqGYD8aagFTEBQPdwsF.obj
 0002:00000590       ?iv1@?1??CarrierSynchronizer_set_NormalizedLoopBandwidth@@9@9 000000018001a590     m_BTWFqGYD8aagFTEBQPdwsF.obj
 0002:00000598       ?iv10@?1??CarrierSynchronizer_set_NormalizedLoopBandwidth@@9@9 000000018001a598     m_BTWFqGYD8aagFTEBQPdwsF.obj
 0002:000005a0       ?iv11@?1??CarrierSynchronizer_set_NormalizedLoopBandwidth@@9@9 000000018001a5a0     m_BTWFqGYD8aagFTEBQPdwsF.obj
 0002:000005a8       ?iv12@?1??CarrierSynchronizer_set_NormalizedLoopBandwidth@@9@9 000000018001a5a8     m_BTWFqGYD8aagFTEBQPdwsF.obj
 0002:000005b0       ?iv13@?1??CarrierSynchronizer_set_NormalizedLoopBandwidth@@9@9 000000018001a5b0     m_BTWFqGYD8aagFTEBQPdwsF.obj
 0002:000005b8       ?iv14@?1??CarrierSynchronizer_set_NormalizedLoopBandwidth@@9@9 000000018001a5b8     m_BTWFqGYD8aagFTEBQPdwsF.obj
 0002:000005c0       ?iv15@?1??CarrierSynchronizer_set_NormalizedLoopBandwidth@@9@9 000000018001a5c0     m_BTWFqGYD8aagFTEBQPdwsF.obj
 0002:000005c8       ?iv2@?1??CarrierSynchronizer_set_NormalizedLoopBandwidth@@9@9 000000018001a5c8     m_BTWFqGYD8aagFTEBQPdwsF.obj
 0002:000005d0       ?iv3@?1??CarrierSynchronizer_set_NormalizedLoopBandwidth@@9@9 000000018001a5d0     m_BTWFqGYD8aagFTEBQPdwsF.obj
 0002:000005d8       ?iv4@?1??CarrierSynchronizer_set_NormalizedLoopBandwidth@@9@9 000000018001a5d8     m_BTWFqGYD8aagFTEBQPdwsF.obj
 0002:000005e0       ?iv5@?1??CarrierSynchronizer_set_NormalizedLoopBandwidth@@9@9 000000018001a5e0     m_BTWFqGYD8aagFTEBQPdwsF.obj
 0002:000005e8       ?iv6@?1??CarrierSynchronizer_set_NormalizedLoopBandwidth@@9@9 000000018001a5e8     m_BTWFqGYD8aagFTEBQPdwsF.obj
 0002:000005f0       ?iv7@?1??CarrierSynchronizer_set_NormalizedLoopBandwidth@@9@9 000000018001a5f0     m_BTWFqGYD8aagFTEBQPdwsF.obj
 0002:000005f8       ?iv8@?1??CarrierSynchronizer_set_NormalizedLoopBandwidth@@9@9 000000018001a5f8     m_BTWFqGYD8aagFTEBQPdwsF.obj
 0002:00000600       ?iv9@?1??CarrierSynchronizer_set_NormalizedLoopBandwidth@@9@9 000000018001a600     m_BTWFqGYD8aagFTEBQPdwsF.obj
 0002:00000608       ?iv@?1??SystemCore_setup@@9@9 000000018001a608     m_BTWFqGYD8aagFTEBQPdwsF.obj
 0002:00000610       ?iv1@?1??SystemCore_setup@@9@9 000000018001a610     m_BTWFqGYD8aagFTEBQPdwsF.obj
 0002:00000618       ?iv2@?1??SystemCore_setup@@9@9 000000018001a618     m_BTWFqGYD8aagFTEBQPdwsF.obj
 0002:00000620       ?iv@?1??SystemCore_checkTunablePropChange@@9@9 000000018001a620     m_BTWFqGYD8aagFTEBQPdwsF.obj
 0002:00000628       ?iv1@?1??SystemCore_checkTunablePropChange@@9@9 000000018001a628     m_BTWFqGYD8aagFTEBQPdwsF.obj
 0002:00000630       ?iv@?1??mw__internal__call__reset@@9@9 000000018001a630     m_BTWFqGYD8aagFTEBQPdwsF.obj
 0002:00000638       ?iv1@?1??mw__internal__call__reset@@9@9 000000018001a638     m_BTWFqGYD8aagFTEBQPdwsF.obj
 0002:00000640       ?iv2@?1??mw__internal__call__reset@@9@9 000000018001a640     m_BTWFqGYD8aagFTEBQPdwsF.obj
 0002:00000648       ?iv3@?1??mw__internal__call__reset@@9@9 000000018001a648     m_BTWFqGYD8aagFTEBQPdwsF.obj
 0002:00000650       ?iv4@?1??mw__internal__call__reset@@9@9 000000018001a650     m_BTWFqGYD8aagFTEBQPdwsF.obj
 0002:00000658       ?iv@?1??mw__internal__system___fcn@@9@9 000000018001a658     m_BTWFqGYD8aagFTEBQPdwsF.obj
 0002:00000660       ?iv1@?1??mw__internal__system___fcn@@9@9 000000018001a660     m_BTWFqGYD8aagFTEBQPdwsF.obj
 0002:00000668       ?iv2@?1??mw__internal__system___fcn@@9@9 000000018001a668     m_BTWFqGYD8aagFTEBQPdwsF.obj
 0002:00000670       ?iv1@?1??emlrt_marshallOut@@9@9 000000018001a670     m_BTWFqGYD8aagFTEBQPdwsF.obj
 0002:00000678       ?iv2@?1??emlrt_marshallOut@@9@9 000000018001a678     m_BTWFqGYD8aagFTEBQPdwsF.obj
 0002:00000680       ?iv3@?1??emlrt_marshallOut@@9@9 000000018001a680     m_BTWFqGYD8aagFTEBQPdwsF.obj
 0002:000006d0       ?iv@?1??AWGNChannelBase_set_EbNo@@9@9 000000018001a6d0     m_FpwZVT78uS5A5Xdp3o5d3.obj
 0002:000006d8       ?iv1@?1??AWGNChannelBase_set_EbNo@@9@9 000000018001a6d8     m_FpwZVT78uS5A5Xdp3o5d3.obj
 0002:000006e0       ?iv2@?1??AWGNChannelBase_set_EbNo@@9@9 000000018001a6e0     m_FpwZVT78uS5A5Xdp3o5d3.obj
 0002:000006e8       ?iv@?1??AWGNChannelBase_set_SignalPower@@9@9 000000018001a6e8     m_FpwZVT78uS5A5Xdp3o5d3.obj
 0002:000006f0       ?iv1@?1??AWGNChannelBase_set_SignalPower@@9@9 000000018001a6f0     m_FpwZVT78uS5A5Xdp3o5d3.obj
 0002:000006f8       ?iv2@?1??AWGNChannelBase_set_SignalPower@@9@9 000000018001a6f8     m_FpwZVT78uS5A5Xdp3o5d3.obj
 0002:00000700       ?iv3@?1??AWGNChannelBase_set_SignalPower@@9@9 000000018001a700     m_FpwZVT78uS5A5Xdp3o5d3.obj
 0002:00000708       ?iv4@?1??AWGNChannelBase_set_SignalPower@@9@9 000000018001a708     m_FpwZVT78uS5A5Xdp3o5d3.obj
 0002:00000710       ?iv5@?1??AWGNChannelBase_set_SignalPower@@9@9 000000018001a710     m_FpwZVT78uS5A5Xdp3o5d3.obj
 0002:00000718       ?iv6@?1??AWGNChannelBase_set_SignalPower@@9@9 000000018001a718     m_FpwZVT78uS5A5Xdp3o5d3.obj
 0002:00000720       ?iv7@?1??AWGNChannelBase_set_SignalPower@@9@9 000000018001a720     m_FpwZVT78uS5A5Xdp3o5d3.obj
 0002:00000728       ?iv8@?1??AWGNChannelBase_set_SignalPower@@9@9 000000018001a728     m_FpwZVT78uS5A5Xdp3o5d3.obj
 0002:00000730       ?iv@?1??SystemCore_setup@@9@9 000000018001a730     m_FpwZVT78uS5A5Xdp3o5d3.obj
 0002:00000738       ?iv2@?1??SystemCore_setup@@9@9 000000018001a738     m_FpwZVT78uS5A5Xdp3o5d3.obj
 0002:00000740       ?iv3@?1??SystemCore_setup@@9@9 000000018001a740     m_FpwZVT78uS5A5Xdp3o5d3.obj
 0002:00000748       ?iv4@?1??SystemCore_setup@@9@9 000000018001a748     m_FpwZVT78uS5A5Xdp3o5d3.obj
 0002:00000750       ?iv5@?1??SystemCore_setup@@9@9 000000018001a750     m_FpwZVT78uS5A5Xdp3o5d3.obj
 0002:00000758       ?iv6@?1??SystemCore_setup@@9@9 000000018001a758     m_FpwZVT78uS5A5Xdp3o5d3.obj
 0002:00000760       ?iv7@?1??SystemCore_setup@@9@9 000000018001a760     m_FpwZVT78uS5A5Xdp3o5d3.obj
 0002:00000768       ?iv@?1??AWGNChannelBase_getStandardDeviation@@9@9 000000018001a768     m_FpwZVT78uS5A5Xdp3o5d3.obj
 0002:00000770       ?iv1@?1??AWGNChannelBase_getStandardDeviation@@9@9 000000018001a770     m_FpwZVT78uS5A5Xdp3o5d3.obj
 0002:00000778       ?iv2@?1??AWGNChannelBase_getStandardDeviation@@9@9 000000018001a778     m_FpwZVT78uS5A5Xdp3o5d3.obj
 0002:00000780       ?iv@?1??SystemCore_checkTunablePropChange@@9@9 000000018001a780     m_FpwZVT78uS5A5Xdp3o5d3.obj
 0002:00000788       ?iv1@?1??SystemCore_checkTunablePropChange@@9@9 000000018001a788     m_FpwZVT78uS5A5Xdp3o5d3.obj
 0002:00000790       ?iv@?1??mw__internal__call__reset@@9@9 000000018001a790     m_FpwZVT78uS5A5Xdp3o5d3.obj
 0002:00000798       ?iv1@?1??mw__internal__call__reset@@9@9 000000018001a798     m_FpwZVT78uS5A5Xdp3o5d3.obj
 0002:000007a0       ?iv2@?1??mw__internal__call__reset@@9@9 000000018001a7a0     m_FpwZVT78uS5A5Xdp3o5d3.obj
 0002:000007a8       ?iv3@?1??mw__internal__call__reset@@9@9 000000018001a7a8     m_FpwZVT78uS5A5Xdp3o5d3.obj
 0002:000007b0       ?iv4@?1??mw__internal__call__reset@@9@9 000000018001a7b0     m_FpwZVT78uS5A5Xdp3o5d3.obj
 0002:000007b8       ?iv@?1??mw__internal__call__step@@9@9 000000018001a7b8     m_FpwZVT78uS5A5Xdp3o5d3.obj
 0002:000007c0       ?iv1@?1??mw__internal__call__step@@9@9 000000018001a7c0     m_FpwZVT78uS5A5Xdp3o5d3.obj
 0002:000007c8       ?iv2@?1??mw__internal__call__step@@9@9 000000018001a7c8     m_FpwZVT78uS5A5Xdp3o5d3.obj
 0002:000007d0       ?iv@?1??AWGNChannelBase_stepImpl@@9@9 000000018001a7d0     m_FpwZVT78uS5A5Xdp3o5d3.obj
 0002:000007d8       ?iv1@?1??AWGNChannelBase_stepImpl@@9@9 000000018001a7d8     m_FpwZVT78uS5A5Xdp3o5d3.obj
 0002:000007e0       ?iv2@?1??AWGNChannelBase_stepImpl@@9@9 000000018001a7e0     m_FpwZVT78uS5A5Xdp3o5d3.obj
 0002:000007e8       ?iv3@?1??AWGNChannelBase_stepImpl@@9@9 000000018001a7e8     m_FpwZVT78uS5A5Xdp3o5d3.obj
 0002:000007f0       ?iv@?1??mt19937ar_genrandu@@9@9 000000018001a7f0     m_FpwZVT78uS5A5Xdp3o5d3.obj
 0002:000007f8       ?iv1@?1??mt19937ar_genrandu@@9@9 000000018001a7f8     m_FpwZVT78uS5A5Xdp3o5d3.obj
 0002:00000800       ?iv@?1??b_mt19937ar_genrandu@@9@9 000000018001a800     m_FpwZVT78uS5A5Xdp3o5d3.obj
 0002:00000808       ?iv1@?1??b_mt19937ar_genrandu@@9@9 000000018001a808     m_FpwZVT78uS5A5Xdp3o5d3.obj
 0002:00000af0       GS_ExceptionPointers       000000018001aaf0     MSVCRT:gs_report.obj
 0002:000010a8       $unwind$cgxe_commqpsktxrx_method_dispatcher 000000018001b0a8     commqpsktxrx_cgxe.obj
 0002:000010b0       $unwind$method_dispatcher_BTWFqGYD8aagFTEBQPdwsF 000000018001b0b0     m_BTWFqGYD8aagFTEBQPdwsF.obj
 0002:000010b8       $unwind$cgxe_mdl_start     000000018001b0b8     m_BTWFqGYD8aagFTEBQPdwsF.obj
 0002:000010c8       $unwind$cgxe_mdl_initialize 000000018001b0c8     m_BTWFqGYD8aagFTEBQPdwsF.obj
 0002:000010d0       $unwind$cgxe_mdl_outputs   000000018001b0d0     m_BTWFqGYD8aagFTEBQPdwsF.obj
 0002:000010e0       $unwind$cgxe_mdl_terminate 000000018001b0e0     m_BTWFqGYD8aagFTEBQPdwsF.obj
 0002:000010e8       $unwind$mw__internal__call__setup 000000018001b0e8     m_BTWFqGYD8aagFTEBQPdwsF.obj
 0002:000010f0       $unwind$CarrierSynchronizer_CarrierSynchronizer 000000018001b0f0     m_BTWFqGYD8aagFTEBQPdwsF.obj
 0002:000010f8       $unwind$CarrierSynchronizer_set_SamplesPerSymbol 000000018001b0f8     m_BTWFqGYD8aagFTEBQPdwsF.obj
 0002:00001108       $unwind$CarrierSynchronizer_set_DampingFactor 000000018001b108     m_BTWFqGYD8aagFTEBQPdwsF.obj
 0002:00001118       $unwind$CarrierSynchronizer_set_NormalizedLoopBandwidth 000000018001b118     m_BTWFqGYD8aagFTEBQPdwsF.obj
 0002:00001128       $unwind$SystemCore_setup   000000018001b128     m_BTWFqGYD8aagFTEBQPdwsF.obj
 0002:0000113c       $unwind$SystemCore_checkTunablePropChange 000000018001b13c     m_BTWFqGYD8aagFTEBQPdwsF.obj
 0002:0000114c       $unwind$mw__internal__call__reset 000000018001b14c     m_BTWFqGYD8aagFTEBQPdwsF.obj
 0002:0000115c       $unwind$mw__internal__call__step 000000018001b15c     m_BTWFqGYD8aagFTEBQPdwsF.obj
 0002:0000116c       $unwind$mw__internal__system___fcn 000000018001b16c     m_BTWFqGYD8aagFTEBQPdwsF.obj
 0002:00001180       $unwind$CarrierSynchronizer_stepImpl 000000018001b180     m_BTWFqGYD8aagFTEBQPdwsF.obj
 0002:00001190       $unwind$expFunc            000000018001b190     m_BTWFqGYD8aagFTEBQPdwsF.obj
 0002:000011a4       $unwind$emlrt_marshallOut  000000018001b1a4     m_BTWFqGYD8aagFTEBQPdwsF.obj
 0002:000011b8       $unwind$cgxe_mdl_get_sim_state 000000018001b1b8     m_BTWFqGYD8aagFTEBQPdwsF.obj
 0002:000011c0       $unwind$emlrt_marshallIn   000000018001b1c0     m_BTWFqGYD8aagFTEBQPdwsF.obj
 0002:000011c8       $unwind$b_emlrt_marshallIn 000000018001b1c8     m_BTWFqGYD8aagFTEBQPdwsF.obj
 0002:000011d0       $unwind$c_emlrt_marshallIn 000000018001b1d0     m_BTWFqGYD8aagFTEBQPdwsF.obj
 0002:000011dc       $unwind$d_emlrt_marshallIn 000000018001b1dc     m_BTWFqGYD8aagFTEBQPdwsF.obj
 0002:000011e4       $unwind$e_emlrt_marshallIn 000000018001b1e4     m_BTWFqGYD8aagFTEBQPdwsF.obj
 0002:000011ec       $unwind$f_emlrt_marshallIn 000000018001b1ec     m_BTWFqGYD8aagFTEBQPdwsF.obj
 0002:000011f4       $unwind$g_emlrt_marshallIn 000000018001b1f4     m_BTWFqGYD8aagFTEBQPdwsF.obj
 0002:000011fc       $unwind$h_emlrt_marshallIn 000000018001b1fc     m_BTWFqGYD8aagFTEBQPdwsF.obj
 0002:00001204       $unwind$i_emlrt_marshallIn 000000018001b204     m_BTWFqGYD8aagFTEBQPdwsF.obj
 0002:0000120c       $unwind$j_emlrt_marshallIn 000000018001b20c     m_BTWFqGYD8aagFTEBQPdwsF.obj
 0002:00001220       $unwind$k_emlrt_marshallIn 000000018001b220     m_BTWFqGYD8aagFTEBQPdwsF.obj
 0002:00001228       $unwind$l_emlrt_marshallIn 000000018001b228     m_BTWFqGYD8aagFTEBQPdwsF.obj
 0002:00001230       $unwind$cgxe_mdl_set_sim_state 000000018001b230     m_BTWFqGYD8aagFTEBQPdwsF.obj
 0002:00001238       $unwind$message            000000018001b238     m_BTWFqGYD8aagFTEBQPdwsF.obj
 0002:00001240       $unwind$getString          000000018001b240     m_BTWFqGYD8aagFTEBQPdwsF.obj
 0002:00001248       $unwind$error              000000018001b248     m_BTWFqGYD8aagFTEBQPdwsF.obj
 0002:00001250       $unwind$b_message          000000018001b250     m_BTWFqGYD8aagFTEBQPdwsF.obj
 0002:00001260       $unwind$c_message          000000018001b260     m_BTWFqGYD8aagFTEBQPdwsF.obj
 0002:00001268       $unwind$m_emlrt_marshallIn 000000018001b268     m_BTWFqGYD8aagFTEBQPdwsF.obj
 0002:00001270       $unwind$n_emlrt_marshallIn 000000018001b270     m_BTWFqGYD8aagFTEBQPdwsF.obj
 0002:00001278       $unwind$o_emlrt_marshallIn 000000018001b278     m_BTWFqGYD8aagFTEBQPdwsF.obj
 0002:00001280       $unwind$p_emlrt_marshallIn 000000018001b280     m_BTWFqGYD8aagFTEBQPdwsF.obj
 0002:00001288       $unwind$q_emlrt_marshallIn 000000018001b288     m_BTWFqGYD8aagFTEBQPdwsF.obj
 0002:00001290       $unwind$r_emlrt_marshallIn 000000018001b290     m_BTWFqGYD8aagFTEBQPdwsF.obj
 0002:000012a4       $unwind$s_emlrt_marshallIn 000000018001b2a4     m_BTWFqGYD8aagFTEBQPdwsF.obj
 0002:000012ac       $unwind$carrierSyncCore    000000018001b2ac     m_BTWFqGYD8aagFTEBQPdwsF.obj
 0002:000012c0       $unwind$init_simulink_io_address 000000018001b2c0     m_BTWFqGYD8aagFTEBQPdwsF.obj
 0002:000012c8       $unwind$mdlOutputs_BTWFqGYD8aagFTEBQPdwsF 000000018001b2c8     m_BTWFqGYD8aagFTEBQPdwsF.obj
 0002:000012d0       $unwind$mdlInitialize_BTWFqGYD8aagFTEBQPdwsF 000000018001b2d0     m_BTWFqGYD8aagFTEBQPdwsF.obj
 0002:000012d8       $unwind$mdlUpdate_BTWFqGYD8aagFTEBQPdwsF 000000018001b2d8     m_BTWFqGYD8aagFTEBQPdwsF.obj
 0002:000012e0       $unwind$mdlDerivatives_BTWFqGYD8aagFTEBQPdwsF 000000018001b2e0     m_BTWFqGYD8aagFTEBQPdwsF.obj
 0002:000012e8       $unwind$getSimState_BTWFqGYD8aagFTEBQPdwsF 000000018001b2e8     m_BTWFqGYD8aagFTEBQPdwsF.obj
 0002:000012f0       $unwind$setSimState_BTWFqGYD8aagFTEBQPdwsF 000000018001b2f0     m_BTWFqGYD8aagFTEBQPdwsF.obj
 0002:000012f8       $unwind$mdlTerminate_BTWFqGYD8aagFTEBQPdwsF 000000018001b2f8     m_BTWFqGYD8aagFTEBQPdwsF.obj
 0002:00001300       $unwind$mdlEnable_BTWFqGYD8aagFTEBQPdwsF 000000018001b300     m_BTWFqGYD8aagFTEBQPdwsF.obj
 0002:00001308       $unwind$mdlDisable_BTWFqGYD8aagFTEBQPdwsF 000000018001b308     m_BTWFqGYD8aagFTEBQPdwsF.obj
 0002:00001310       $unwind$mdlStart_BTWFqGYD8aagFTEBQPdwsF 000000018001b310     m_BTWFqGYD8aagFTEBQPdwsF.obj
 0002:00001318       $unwind$cgxe_BTWFqGYD8aagFTEBQPdwsF_BuildInfoUpdate 000000018001b318     m_BTWFqGYD8aagFTEBQPdwsF.obj
 0002:00001320       $unwind$cgxe_BTWFqGYD8aagFTEBQPdwsF_fallback_info 000000018001b320     m_BTWFqGYD8aagFTEBQPdwsF.obj
 0002:00001328       $unwind$localtime          000000018001b328     m_FpwZVT78uS5A5Xdp3o5d3.obj
 0002:00001330       $unwind$time               000000018001b330     m_FpwZVT78uS5A5Xdp3o5d3.obj
 0002:00001338       $unwind$method_dispatcher_FpwZVT78uS5A5Xdp3o5d3 000000018001b338     m_FpwZVT78uS5A5Xdp3o5d3.obj
 0002:00001340       $unwind$cgxe_mdl_start     000000018001b340     m_FpwZVT78uS5A5Xdp3o5d3.obj
 0002:00001348       $unwind$cgxe_mdl_initialize 000000018001b348     m_FpwZVT78uS5A5Xdp3o5d3.obj
 0002:00001350       $unwind$cgxe_mdl_outputs   000000018001b350     m_FpwZVT78uS5A5Xdp3o5d3.obj
 0002:00001358       $unwind$cgxe_mdl_terminate 000000018001b358     m_FpwZVT78uS5A5Xdp3o5d3.obj
 0002:00001360       $unwind$mw__internal__system__init__fcn 000000018001b360     m_FpwZVT78uS5A5Xdp3o5d3.obj
 0002:00001368       $unwind$mw__internal__call__setup 000000018001b368     m_FpwZVT78uS5A5Xdp3o5d3.obj
 0002:00001370       $unwind$AWGNChannelBase_set_EbNo 000000018001b370     m_FpwZVT78uS5A5Xdp3o5d3.obj
 0002:00001380       $unwind$AWGNChannelBase_set_SignalPower 000000018001b380     m_FpwZVT78uS5A5Xdp3o5d3.obj
 0002:00001390       $unwind$SystemCore_setup   000000018001b390     m_FpwZVT78uS5A5Xdp3o5d3.obj
 0002:000013a4       $unwind$now                000000018001b3a4     m_FpwZVT78uS5A5Xdp3o5d3.obj
 0002:000013b8       $unwind$b_mod              000000018001b3b8     m_FpwZVT78uS5A5Xdp3o5d3.obj
 0002:000013c0       $unwind$mt19937ar_reset    000000018001b3c0     m_FpwZVT78uS5A5Xdp3o5d3.obj
 0002:000013c8       $unwind$maximum            000000018001b3c8     m_FpwZVT78uS5A5Xdp3o5d3.obj
 0002:000013d0       $unwind$AWGNChannelBase_getStandardDeviation 000000018001b3d0     m_FpwZVT78uS5A5Xdp3o5d3.obj
 0002:000013e0       $unwind$SystemCore_checkTunablePropChange 000000018001b3e0     m_FpwZVT78uS5A5Xdp3o5d3.obj
 0002:000013f0       $unwind$mw__internal__call__reset 000000018001b3f0     m_FpwZVT78uS5A5Xdp3o5d3.obj
 0002:00001400       $unwind$mw__internal__call__step 000000018001b400     m_FpwZVT78uS5A5Xdp3o5d3.obj
 0002:00001410       $unwind$AWGNChannelBase_stepImpl 000000018001b410     m_FpwZVT78uS5A5Xdp3o5d3.obj
 0002:00001424       $unwind$AWGNChannel_randomDataLocal 000000018001b424     m_FpwZVT78uS5A5Xdp3o5d3.obj
 0002:00001438       $unwind$mt19937ar_mtziggurat 000000018001b438     m_FpwZVT78uS5A5Xdp3o5d3.obj
 0002:00001440       $unwind$mt19937ar_genrand_uint32_vector 000000018001b440     m_FpwZVT78uS5A5Xdp3o5d3.obj
 0002:00001448       $unwind$mt19937ar_genrandu 000000018001b448     m_FpwZVT78uS5A5Xdp3o5d3.obj
 0002:00001458       $unwind$is_valid_state     000000018001b458     m_FpwZVT78uS5A5Xdp3o5d3.obj
 0002:00001460       $unwind$RandStream_zigguratGenrandn 000000018001b460     m_FpwZVT78uS5A5Xdp3o5d3.obj
 0002:00001468       $unwind$RandStream_rand    000000018001b468     m_FpwZVT78uS5A5Xdp3o5d3.obj
 0002:00001470       $unwind$b_mt19937ar_genrandu 000000018001b470     m_FpwZVT78uS5A5Xdp3o5d3.obj
 0002:00001480       $unwind$b_RandStream_rand  000000018001b480     m_FpwZVT78uS5A5Xdp3o5d3.obj
 0002:00001488       $unwind$RandStream_polarGenrandn 000000018001b488     m_FpwZVT78uS5A5Xdp3o5d3.obj
 0002:00001490       $unwind$RandStream_inversionGenrandn 000000018001b490     m_FpwZVT78uS5A5Xdp3o5d3.obj
 0002:00001498       $unwind$message            000000018001b498     m_FpwZVT78uS5A5Xdp3o5d3.obj
 0002:000014a0       $unwind$getString          000000018001b4a0     m_FpwZVT78uS5A5Xdp3o5d3.obj
 0002:000014a8       $unwind$error              000000018001b4a8     m_FpwZVT78uS5A5Xdp3o5d3.obj
 0002:000014b0       $unwind$b_message          000000018001b4b0     m_FpwZVT78uS5A5Xdp3o5d3.obj
 0002:000014b8       $unwind$init_simulink_io_address 000000018001b4b8     m_FpwZVT78uS5A5Xdp3o5d3.obj
 0002:000014c0       $unwind$mdlOutputs_FpwZVT78uS5A5Xdp3o5d3 000000018001b4c0     m_FpwZVT78uS5A5Xdp3o5d3.obj
 0002:000014c8       $unwind$mdlInitialize_FpwZVT78uS5A5Xdp3o5d3 000000018001b4c8     m_FpwZVT78uS5A5Xdp3o5d3.obj
 0002:000014d0       $unwind$mdlUpdate_FpwZVT78uS5A5Xdp3o5d3 000000018001b4d0     m_FpwZVT78uS5A5Xdp3o5d3.obj
 0002:000014d8       $unwind$mdlDerivatives_FpwZVT78uS5A5Xdp3o5d3 000000018001b4d8     m_FpwZVT78uS5A5Xdp3o5d3.obj
 0002:000014e0       $unwind$mdlTerminate_FpwZVT78uS5A5Xdp3o5d3 000000018001b4e0     m_FpwZVT78uS5A5Xdp3o5d3.obj
 0002:000014e8       $unwind$mdlEnable_FpwZVT78uS5A5Xdp3o5d3 000000018001b4e8     m_FpwZVT78uS5A5Xdp3o5d3.obj
 0002:000014f0       $unwind$mdlDisable_FpwZVT78uS5A5Xdp3o5d3 000000018001b4f0     m_FpwZVT78uS5A5Xdp3o5d3.obj
 0002:000014f8       $unwind$mdlStart_FpwZVT78uS5A5Xdp3o5d3 000000018001b4f8     m_FpwZVT78uS5A5Xdp3o5d3.obj
 0002:00001500       $unwind$cgxe_FpwZVT78uS5A5Xdp3o5d3_BuildInfoUpdate 000000018001b500     m_FpwZVT78uS5A5Xdp3o5d3.obj
 0002:00001508       $unwind$cgxe_FpwZVT78uS5A5Xdp3o5d3_fallback_info 000000018001b508     m_FpwZVT78uS5A5Xdp3o5d3.obj
 0002:00001510       $unwind$_vsnprintf_l       000000018001b510     commqpsktxrx_cgxe_registry.obj
 0002:00001518       $unwind$_vsprintf_l        000000018001b518     commqpsktxrx_cgxe_registry.obj
 0002:00001520       $unwind$sprintf            000000018001b520     commqpsktxrx_cgxe_registry.obj
 0002:00001528       $unwind$mexFunction        000000018001b528     commqpsktxrx_cgxe_registry.obj
 0002:00001538       $unwind$_ssSetInputPortDirectFeedThroughFcn 000000018001b538     commqpsktxrx_cgxe_registry.obj
 0002:00001548       $unwind$_ssSetRWorkValueFcn 000000018001b548     commqpsktxrx_cgxe_registry.obj
 0002:00001550       $unwind$_ssGetRWorkValueFcn 000000018001b550     commqpsktxrx_cgxe_registry.obj
 0002:00001558       $unwind$_ssSetIWorkValueFcn 000000018001b558     commqpsktxrx_cgxe_registry.obj
 0002:00001560       $unwind$_ssGetIWorkValueFcn 000000018001b560     commqpsktxrx_cgxe_registry.obj
 0002:00001568       $unwind$_ssSetPWorkValueFcn 000000018001b568     commqpsktxrx_cgxe_registry.obj
 0002:00001570       $unwind$_ssGetPWorkValueFcn 000000018001b570     commqpsktxrx_cgxe_registry.obj
 0002:00001578       $unwind$_ssGetInputPortSignalFcn 000000018001b578     commqpsktxrx_cgxe_registry.obj
 0002:00001588       $unwind$_ssGetInputPortBufferDstPortFcn 000000018001b588     commqpsktxrx_cgxe_registry.obj
 0002:00001590       $unwind$_ssGetInputPortSignalPtrsFcn 000000018001b590     commqpsktxrx_cgxe_registry.obj
 0002:000015a0       $unwind$ssGetParameterTuningCompliance 000000018001b5a0     commqpsktxrx_cgxe_registry.obj
 0002:000015a8       $unwind$_ssReadInputStringFcn 000000018001b5a8     commqpsktxrx_cgxe_registry.obj
 0002:000015b0       $unwind$ssGetDTypeIdFromMxArray 000000018001b5b0     commqpsktxrx_cgxe_registry.obj
 0002:000015b8       $unwind$ssWriteRTWMx2dMatParam 000000018001b5b8     commqpsktxrx_cgxe_registry.obj
 0002:000015c0       $unwind$ssWriteRTWMxVectParam 000000018001b5c0     commqpsktxrx_cgxe_registry.obj
 0002:000015c8       $unwind$ssWriteRTWParameters 000000018001b5c8     commqpsktxrx_cgxe_registry.obj
 0002:000015d0       $unwind$ssWriteRTWParamSettings 000000018001b5d0     commqpsktxrx_cgxe_registry.obj
 0002:000015d8       $unwind$ssWriteRTWStr      000000018001b5d8     commqpsktxrx_cgxe_registry.obj
 0002:000015e0       $unwind$ssWriteRTWWorkVect 000000018001b5e0     commqpsktxrx_cgxe_registry.obj
 0002:000015f4       $unwind$ssWarning          000000018001b5f4     commqpsktxrx_cgxe_registry.obj
 0002:00001608       $unwind$ssGetRootSS        000000018001b608     commqpsktxrx_cgxe_registry.obj
 0002:00001610       $unwind$ssGetParentSS      000000018001b610     commqpsktxrx_cgxe_registry.obj
 0002:00001618       $unwind$ssWriteRTWNameValuePair 000000018001b618     commqpsktxrx_cgxe_registry.obj
 0002:00001620       $unwind$_ssSetInputPortMatrixDimensions 000000018001b620     commqpsktxrx_cgxe_registry.obj
 0002:0000162c       $unwind$_ssSetOutputPortMatrixDimensions 000000018001b62c     commqpsktxrx_cgxe_registry.obj
 0002:00001638       $unwind$_ssSetInputPortVectorDimension 000000018001b638     commqpsktxrx_cgxe_registry.obj
 0002:00001644       $unwind$_ssSetOutputPortVectorDimension 000000018001b644     commqpsktxrx_cgxe_registry.obj
 0002:00001650       $unwind$ssIsRunTimeParamTunable 000000018001b650     commqpsktxrx_cgxe_registry.obj
 0002:00001658       $unwind$ssGetSFuncBlockHandle 000000018001b658     commqpsktxrx_cgxe_registry.obj
 0002:00001660       $unwind$_ssGetCallSystemNumFcnCallDestinations 000000018001b660     commqpsktxrx_cgxe_registry.obj
 0002:00001668       $unwind$_ssGetCurrentInputPortWidth 000000018001b668     commqpsktxrx_cgxe_registry.obj
 0002:00001670       $unwind$_ssGetCurrentOutputPortWidth 000000018001b670     commqpsktxrx_cgxe_registry.obj
 0002:00001678       $unwind$ssGetIsZeroCrossControlDisabled 000000018001b678     commqpsktxrx_cgxe_registry.obj
 0002:00001680       $unwind$ssSetIsInputPortUsedForContZcSignal 000000018001b680     commqpsktxrx_cgxe_registry.obj
 0002:00001688       $unwind$ssSetZcSignalIsZcElementDisc 000000018001b688     commqpsktxrx_cgxe_registry.obj
 0002:00001698       $unwind$ssSetZcSignalName  000000018001b698     commqpsktxrx_cgxe_registry.obj
 0002:000016a0       $unwind$ssSetZcSignalWidth 000000018001b6a0     commqpsktxrx_cgxe_registry.obj
 0002:000016a8       $unwind$ssSetZcSignalZcEventType 000000018001b6a8     commqpsktxrx_cgxe_registry.obj
 0002:000016b0       $unwind$ssSetZcSignalType  000000018001b6b0     commqpsktxrx_cgxe_registry.obj
 0002:000016b8       $unwind$ssSetZcSignalZcTol 000000018001b6b8     commqpsktxrx_cgxe_registry.obj
 0002:000016c0       $unwind$ssSetZcSignalNeedsEventNotification 000000018001b6c0     commqpsktxrx_cgxe_registry.obj
 0002:000016c8       $unwind$ssCreateAndAddZcSignalInfo 000000018001b6c8     commqpsktxrx_cgxe_registry.obj
 0002:000016d0       $unwind$ssCloneAndAddZcSignalInfo 000000018001b6d0     commqpsktxrx_cgxe_registry.obj
 0002:000016d8       $unwind$ssGetNumZcSignals  000000018001b6d8     commqpsktxrx_cgxe_registry.obj
 0002:000016e0       $unwind$ssGetZcSignalVector 000000018001b6e0     commqpsktxrx_cgxe_registry.obj
 0002:000016e8       $unwind$ssGetZcSignalName  000000018001b6e8     commqpsktxrx_cgxe_registry.obj
 0002:000016f0       $unwind$ssGetZcSignalWidth 000000018001b6f0     commqpsktxrx_cgxe_registry.obj
 0002:000016f8       $unwind$ssGetZcSignalZcEventType 000000018001b6f8     commqpsktxrx_cgxe_registry.obj
 0002:00001700       $unwind$ssGetZcSignalZcEvents 000000018001b700     commqpsktxrx_cgxe_registry.obj
 0002:00001708       $unwind$ssGetZcSignalType  000000018001b708     commqpsktxrx_cgxe_registry.obj
 0002:00001710       $unwind$ssGetZcSignalZcTol 000000018001b710     commqpsktxrx_cgxe_registry.obj
 0002:00001718       $unwind$ssGetZcSignalNeedsEventNotification 000000018001b718     commqpsktxrx_cgxe_registry.obj
 0002:00001720       $unwind$ssGetZcSignalIsZcElementDisc 000000018001b720     commqpsktxrx_cgxe_registry.obj
 0002:00001730       $unwind$ssGetIsInputPortElementContinuous 000000018001b730     commqpsktxrx_cgxe_registry.obj
 0002:00001740       $unwind$_ssGetAbsTol       000000018001b740     commqpsktxrx_cgxe_registry.obj
 0002:00001748       $unwind$_ssSetInputPortReusableFcn 000000018001b748     commqpsktxrx_cgxe_registry.obj
 0002:00001750       $unwind$_ssSetOutputPortReusableFcn 000000018001b750     commqpsktxrx_cgxe_registry.obj
 0002:00001758       $unwind$_ssSetSymbolicDimsSupport 000000018001b758     commqpsktxrx_cgxe_registry.obj
 0002:00001760       $unwind$_ssRegisterSymbolicDimsExpr 000000018001b760     commqpsktxrx_cgxe_registry.obj
 0002:00001768       $unwind$_ssRegisterSymbolicDimsMATLABExpr 000000018001b768     commqpsktxrx_cgxe_registry.obj
 0002:00001770       $unwind$_ssRegisterSymbolicDims 000000018001b770     commqpsktxrx_cgxe_registry.obj
 0002:00001778       $unwind$_ssRegisterSymbolicDimsString 000000018001b778     commqpsktxrx_cgxe_registry.obj
 0002:00001780       $unwind$_ssRegisterSymbolicDimsIntValue 000000018001b780     commqpsktxrx_cgxe_registry.obj
 0002:00001788       $unwind$_ssRegisterSymbolicEqualRelation 000000018001b788     commqpsktxrx_cgxe_registry.obj
 0002:00001790       $unwind$_ssRegisterSymbolicEqualValue 000000018001b790     commqpsktxrx_cgxe_registry.obj
 0002:00001798       $unwind$_ssAmendLeadingSymbolicDims 000000018001b798     commqpsktxrx_cgxe_registry.obj
 0002:000017a0       $unwind$_ssAmendTrailingSymbolicDims 000000018001b7a0     commqpsktxrx_cgxe_registry.obj
 0002:000017a8       $unwind$_ssRegisterSymbolicDimsPlus 000000018001b7a8     commqpsktxrx_cgxe_registry.obj
 0002:000017b0       $unwind$_ssRegisterSymbolicDimsMinus 000000018001b7b0     commqpsktxrx_cgxe_registry.obj
 0002:000017b8       $unwind$_ssRegisterSymbolicDimsMultiply 000000018001b7b8     commqpsktxrx_cgxe_registry.obj
 0002:000017c0       $unwind$_ssRegisterSymbolicDimsDivide 000000018001b7c0     commqpsktxrx_cgxe_registry.obj
 0002:000017c8       $unwind$_ssGetNumSymbolicDims 000000018001b7c8     commqpsktxrx_cgxe_registry.obj
 0002:000017d0       $unwind$_ssGetSymbolicDim  000000018001b7d0     commqpsktxrx_cgxe_registry.obj
 0002:000017d8       $unwind$_ssSetInputPortSymbolicDimsId 000000018001b7d8     commqpsktxrx_cgxe_registry.obj
 0002:000017e0       $unwind$_ssGetCompInputPortSymbolicDimsId 000000018001b7e0     commqpsktxrx_cgxe_registry.obj
 0002:000017e8       $unwind$_ssSetCompInputPortSymbolicDimsId 000000018001b7e8     commqpsktxrx_cgxe_registry.obj
 0002:000017f0       $unwind$_ssSetOutputPortSymbolicDimsId 000000018001b7f0     commqpsktxrx_cgxe_registry.obj
 0002:000017f8       $unwind$_ssGetCompOutputPortSymbolicDimsId 000000018001b7f8     commqpsktxrx_cgxe_registry.obj
 0002:00001800       $unwind$_ssSetCompOutputPortSymbolicDimsId 000000018001b800     commqpsktxrx_cgxe_registry.obj
 0002:00001808       $unwind$_ssGetDWorkSymbolicDimsId 000000018001b808     commqpsktxrx_cgxe_registry.obj
 0002:00001810       $unwind$_ssSetDWorkSymbolicDimsId 000000018001b810     commqpsktxrx_cgxe_registry.obj
 0002:00001818       $unwind$_ssGetCompDWorkSymbolicDimsId 000000018001b818     commqpsktxrx_cgxe_registry.obj
 0002:00001820       $unwind$_ssSetCompDWorkSymbolicDimsId 000000018001b820     commqpsktxrx_cgxe_registry.obj
 0002:00001828       $unwind$_ssCreateSLCGStringBuffer 000000018001b828     commqpsktxrx_cgxe_registry.obj
 0002:00001830       $unwind$_ssAddToSLCGStringBuffer 000000018001b830     commqpsktxrx_cgxe_registry.obj
 0002:00001838       $unwind$_ssGetPointerContainedData 000000018001b838     commqpsktxrx_cgxe_registry.obj
 0002:00001840       $unwind$_ssGetPointerContainedDataWidth 000000018001b840     commqpsktxrx_cgxe_registry.obj
 0002:00001848       $unwind$_ssRegisterDynamicArrayDataTypeFcn 000000018001b848     commqpsktxrx_cgxe_registry.obj
 0002:00001850       $unwind$_ssGetDynamicArrayContainedDataCurrentWidthFcn 000000018001b850     commqpsktxrx_cgxe_registry.obj
 0002:00001858       $unwind$_ssGetDynamicArrayContainedDataFcn 000000018001b858     commqpsktxrx_cgxe_registry.obj
 0002:00001860       $unwind$_ssGetInputPortDynamicArrayDataFcn 000000018001b860     commqpsktxrx_cgxe_registry.obj
 0002:00001868       $unwind$_ssGetOutputPortDynamicArrayDataFcn 000000018001b868     commqpsktxrx_cgxe_registry.obj
 0002:00001870       $unwind$_ssGetInputPortDynamicArrayContainedDataFcn 000000018001b870     commqpsktxrx_cgxe_registry.obj
 0002:00001878       $unwind$_ssGetOutputPortDynamicArrayContainedDataFcn 000000018001b878     commqpsktxrx_cgxe_registry.obj
 0002:00001880       $unwind$_ssGetDynamicArrayDWorkContainedDataFcn 000000018001b880     commqpsktxrx_cgxe_registry.obj
 0002:00001888       $unwind$mdlStart           000000018001b888     commqpsktxrx_cgxe_registry.obj
 0002:00001890       $unwind$mdlInitializeConditions 000000018001b890     commqpsktxrx_cgxe_registry.obj
 0002:00001898       $unwind$mdlUpdate          000000018001b898     commqpsktxrx_cgxe_registry.obj
 0002:000018a0       $unwind$mdlOutputs         000000018001b8a0     commqpsktxrx_cgxe_registry.obj
 0002:000018a8       $unwind$mdlTerminate       000000018001b8a8     commqpsktxrx_cgxe_registry.obj
 0002:000018b0       $unwind$cgxe_get_supported_modules 000000018001b8b0     commqpsktxrx_cgxe_registry.obj
 0002:000018b8       $unwind$cgxe_process_get_checksums 000000018001b8b8     commqpsktxrx_cgxe_registry.obj
 0002:000018c8       $unwind$cgxe_mex_unlock_call 000000018001b8c8     commqpsktxrx_cgxe_registry.obj
 0002:000018d0       $unwind$cgxe_unpack_simstruct 000000018001b8d0     commqpsktxrx_cgxe_registry.obj
 0002:000018d8       $unwind$cgxe_get_sim_state 000000018001b8d8     commqpsktxrx_cgxe_registry.obj
 0002:000018e0       $unwind$cgxe_set_sim_state 000000018001b8e0     commqpsktxrx_cgxe_registry.obj
 0002:000018e8       $unwind$cgxe_get_BuildInfoUpdate 000000018001b8e8     commqpsktxrx_cgxe_registry.obj
 0002:000018f8       $unwind$cgxe_get_fallback_info 000000018001b8f8     commqpsktxrx_cgxe_registry.obj
 0002:00001908       $unwind$ProcessMexSfunctionCmdLineCall 000000018001b908     commqpsktxrx_cgxe_registry.obj
 0002:00001918       $unwind$_RegNumInputPortsCB 000000018001b918     commqpsktxrx_cgxe_registry.obj
 0002:00001920       $unwind$_RegNumOutputPortsCB 000000018001b920     commqpsktxrx_cgxe_registry.obj
 0002:00001928       $unwind$_CreateSimStruct   000000018001b928     commqpsktxrx_cgxe_registry.obj
 0002:00001930       $unwind$_ProcessMexSfunctionCmdLineCall 000000018001b930     commqpsktxrx_cgxe_registry.obj
 0002:00001940       $unwind$ReportIndexOutOfBoundsError 000000018001b940     commqpsktxrx_cgxe_registry.obj
 0002:00001950       $unwind$__GSHandlerCheckCommon 000000018001b950     MSVCRT:gshandler.obj
 0002:00001958       $unwind$__GSHandlerCheck   000000018001b958     MSVCRT:gshandler.obj
 0002:00001960       $xdatasym                  000000018001b960     MSVCRT:chkstk.obj
 0002:00001968       $xdatasym                  000000018001b968     MSVCRT:amdsecgs.obj
 0002:0000196c       $unwind$__report_securityfailure 000000018001b96c     MSVCRT:gs_report.obj
 0002:00001974       $unwind$__report_securityfailureEx 000000018001b974     MSVCRT:gs_report.obj
 0002:0000197c       $unwind$__report_rangecheckfailure 000000018001b97c     MSVCRT:gs_report.obj
 0002:00001984       $unwind$__report_gsfailure 000000018001b984     MSVCRT:gs_report.obj
 0002:0000198c       $unwind$capture_current_context 000000018001b98c     MSVCRT:gs_report.obj
 0002:00001998       $unwind$capture_previous_context 000000018001b998     MSVCRT:gs_report.obj
 0002:000019a4       $unwind$__raise_securityfailure 000000018001b9a4     MSVCRT:gs_report.obj
 0002:000019ac       $unwind$?dllmain_crt_process_attach@@YAHQEAUHINSTANCE__@@QEAX@Z 000000018001b9ac     MSVCRT:dll_dllmain.obj
 0002:000019e8       $unwind$?fin$0@?0??dllmain_crt_process_attach@@YAHQEAUHINSTANCE__@@QEAX@Z@4HA 000000018001b9e8     MSVCRT:dll_dllmain.obj
 0002:000019f0       $unwind$?dllmain_crt_process_detach@@YAH_N@Z 000000018001b9f0     MSVCRT:dll_dllmain.obj
 0002:00001a44       $unwind$?fin$0@?0??dllmain_crt_process_detach@@YAH_N@Z@4HA 000000018001ba44     MSVCRT:dll_dllmain.obj
 0002:00001a4c       $unwind$?fin$1@?0??dllmain_crt_process_detach@@YAH_N@Z@4HA 000000018001ba4c     MSVCRT:dll_dllmain.obj
 0002:00001a54       $unwind$?dllmain_crt_dispatch@@YAHQEAUHINSTANCE__@@KQEAX@Z 000000018001ba54     MSVCRT:dll_dllmain.obj
 0002:00001a5c       $unwind$?dllmain_dispatch@@YAHQEAUHINSTANCE__@@KQEAX@Z 000000018001ba5c     MSVCRT:dll_dllmain.obj
 0002:00001a84       $unwind$?filt$0@?0??dllmain_dispatch@@YAHQEAUHINSTANCE__@@KQEAX@Z@4HA 000000018001ba84     MSVCRT:dll_dllmain.obj
 0002:00001a8c       $unwind$_DllMainCRTStartup 000000018001ba8c     MSVCRT:dll_dllmain.obj
 0002:00001a9c       $unwind$__security_init_cookie 000000018001ba9c     MSVCRT:gs_support.obj
 0002:00001aa8       $unwind$__get_entropy      000000018001baa8     MSVCRT:gs_support.obj
 0002:00001ab0       $unwind$DllMain            000000018001bab0     MSVCRT:dll_dllmain_stub.obj
 0002:00001ab8       $unwind$__scrt_initialize_default_local_stdio_options 000000018001bab8     MSVCRT:default_local_stdio_options.obj
 0002:00001ac0       $unwind$atexit             000000018001bac0     MSVCRT:utility.obj
 0002:00001ac8       $unwind$_onexit            000000018001bac8     MSVCRT:utility.obj
 0002:00001ad0       $unwind$__scrt_is_nonwritable_in_current_image 000000018001bad0     MSVCRT:utility.obj
 0002:00001af0       $unwind$__scrt_is_nonwritable_in_current_image$filt$0 000000018001baf0     MSVCRT:utility.obj
 0002:00001af8       $unwind$__scrt_acquire_startup_lock 000000018001baf8     MSVCRT:utility.obj
 0002:00001b00       $unwind$__scrt_release_startup_lock 000000018001bb00     MSVCRT:utility.obj
 0002:00001b08       $unwind$__scrt_initialize_crt 000000018001bb08     MSVCRT:utility.obj
 0002:00001b10       $unwind$__scrt_uninitialize_crt 000000018001bb10     MSVCRT:utility.obj
 0002:00001b18       $unwind$__scrt_initialize_onexit_tables 000000018001bb18     MSVCRT:utility.obj
 0002:00001b20       $unwind$__scrt_dllmain_exception_filter 000000018001bb20     MSVCRT:utility.obj
 0002:00001b34       $unwind$__scrt_dllmain_before_initialize_c 000000018001bb34     MSVCRT:utility.obj
 0002:00001b3c       $unwind$__scrt_dllmain_after_initialize_c 000000018001bb3c     MSVCRT:utility.obj
 0002:00001b44       $unwind$__scrt_dllmain_uninitialize_c 000000018001bb44     MSVCRT:utility.obj
 0002:00001b4c       $unwind$__scrt_dllmain_uninitialize_critical 000000018001bb4c     MSVCRT:utility.obj
 0002:00001b54       $unwind$__scrt_dllmain_crt_thread_attach 000000018001bb54     MSVCRT:utility.obj
 0002:00001b5c       $unwind$__scrt_dllmain_crt_thread_detach 000000018001bb5c     MSVCRT:utility.obj
 0002:00001b64       $unwind$?configure_argv@__scrt_narrow_argv_policy@@SAHXZ 000000018001bb64     MSVCRT:utility.obj
 0002:00001b6c       $unwind$__scrt_get_show_window_mode 000000018001bb6c     MSVCRT:utility_desktop.obj
 0002:00001b74       $unwind$__scrt_is_managed_app 000000018001bb74     MSVCRT:utility_desktop.obj
 0002:00001b7c       $unwind$__scrt_fastfail    000000018001bb7c     MSVCRT:utility_desktop.obj
 0002:00001b8c       $unwind$__scrt_unhandled_exception_filter 000000018001bb8c     MSVCRT:utility_desktop.obj
 0002:00001b98       $unwind$_RTC_Initialize    000000018001bb98     MSVCRT:initsect.obj
 0002:00001ba4       $unwind$_RTC_Terminate     000000018001bba4     MSVCRT:initsect.obj
 0002:00001bb0       $unwind$__castguard_check_failure_os_handled 000000018001bbb0     MSVCRT:guard_support.obj
 0002:00001bb8       $unwind$__castguard_slow_path_check_os_handled 000000018001bbb8     MSVCRT:guard_support.obj
 0002:00001bc0       $unwind$__isa_available_init 000000018001bbc0     MSVCRT:cpu_disp.obj
 0002:00001bd0       $xdatasym                  000000018001bbd0     MSVCRT:guard_dispatch.obj
 0002:00001bd8       $xdatasym                  000000018001bbd8     MSVCRT:guard_xfg_dispatch.obj
 0002:00001be0       .edata                     000000018001bbe0     commqpsktxrx_cgxe.exp
 0002:00001c08       rgpv                       000000018001bc08     commqpsktxrx_cgxe.exp
 0002:00001c10       rgszName                   000000018001bc10     commqpsktxrx_cgxe.exp
 0002:00001c18       rgwOrd                     000000018001bc18     commqpsktxrx_cgxe.exp
 0002:00001c1c       szName                     000000018001bc1c     commqpsktxrx_cgxe.exp
 0002:00001c35       $N00001                    000000018001bc35     commqpsktxrx_cgxe.exp
 0002:00001c41       $N00002                    000000018001bc41     commqpsktxrx_cgxe.exp
 0002:00002348       .idata$6                   000000018001c348     libmx:libmx.dll
 0002:000023ac       .idata$6                   000000018001c3ac     libmex:libmex.dll
 0002:000024a2       .idata$6                   000000018001c4a2     libmwmathutil:libmwmathutil.dll
 0002:00002752       .idata$6                   000000018001c752     libemlrt:libemlrt.dll
 0002:000028e4       .idata$6                   000000018001c8e4     libmwcgxert:libmwcgxert.dll
 0002:00002a80       .idata$6                   000000018001ca80     kernel32:KERNEL32.dll
 0002:00002b18       .idata$6                   000000018001cb18     vcruntime:VCRUNTIME140.dll
 0002:00002c8c       .idata$6                   000000018001cc8c     ucrt:api-ms-win-crt-heap-l1-1-0.dll
 0002:00002cac       .idata$6                   000000018001ccac     ucrt:api-ms-win-crt-math-l1-1-0.dll
 0002:00002ccc       .idata$6                   000000018001cccc     ucrt:api-ms-win-crt-time-l1-1-0.dll
 0002:00002cec       .idata$6                   000000018001ccec     ucrt:api-ms-win-crt-string-l1-1-0.dll
 0002:00002d0e       .idata$6                   000000018001cd0e     ucrt:api-ms-win-crt-stdio-l1-1-0.dll
 0002:00002d2e       .idata$6                   000000018001cd2e     ucrt:api-ms-win-crt-runtime-l1-1-0.dll
 0003:00000000       $SG24629                   000000018001d000     m_BTWFqGYD8aagFTEBQPdwsF.obj
 0003:00000008       $SG22966                   000000018001d008     m_BTWFqGYD8aagFTEBQPdwsF.obj
 0003:00000020       $SG22967                   000000018001d020     m_BTWFqGYD8aagFTEBQPdwsF.obj
 0003:00000070       $SG22969                   000000018001d070     m_BTWFqGYD8aagFTEBQPdwsF.obj
 0003:00000078       $SG22972                   000000018001d078     m_BTWFqGYD8aagFTEBQPdwsF.obj
 0003:00000080       $SG22970                   000000018001d080     m_BTWFqGYD8aagFTEBQPdwsF.obj
 0003:000000d8       $SG22999                   000000018001d0d8     m_BTWFqGYD8aagFTEBQPdwsF.obj
 0003:000000f0       $SG22973                   000000018001d0f0     m_BTWFqGYD8aagFTEBQPdwsF.obj
 0003:0000014c       $SG24445                   000000018001d14c     m_BTWFqGYD8aagFTEBQPdwsF.obj
 0003:00000150       $SG22975                   000000018001d150     m_BTWFqGYD8aagFTEBQPdwsF.obj
 0003:00000160       $SG22976                   000000018001d160     m_BTWFqGYD8aagFTEBQPdwsF.obj
 0003:000001c0       $SG22978                   000000018001d1c0     m_BTWFqGYD8aagFTEBQPdwsF.obj
 0003:000001d0       $SG22979                   000000018001d1d0     m_BTWFqGYD8aagFTEBQPdwsF.obj
 0003:00000230       $SG23000                   000000018001d230     m_BTWFqGYD8aagFTEBQPdwsF.obj
 0003:00000280       $SG23002                   000000018001d280     m_BTWFqGYD8aagFTEBQPdwsF.obj
 0003:00000298       $SG23005                   000000018001d298     m_BTWFqGYD8aagFTEBQPdwsF.obj
 0003:000002b0       $SG23003                   000000018001d2b0     m_BTWFqGYD8aagFTEBQPdwsF.obj
 0003:00000300       $SG23006                   000000018001d300     m_BTWFqGYD8aagFTEBQPdwsF.obj
 0003:00000350       $SG23008                   000000018001d350     m_BTWFqGYD8aagFTEBQPdwsF.obj
 0003:00000364       $SG24438                   000000018001d364     m_BTWFqGYD8aagFTEBQPdwsF.obj
 0003:00000370       $SG23009                   000000018001d370     m_BTWFqGYD8aagFTEBQPdwsF.obj
 0003:000003c0       $SG23011                   000000018001d3c0     m_BTWFqGYD8aagFTEBQPdwsF.obj
 0003:000003d4       $SG24550                   000000018001d3d4     m_BTWFqGYD8aagFTEBQPdwsF.obj
 0003:000003e0       $SG23012                   000000018001d3e0     m_BTWFqGYD8aagFTEBQPdwsF.obj
 0003:00000430       $SG23029                   000000018001d430     m_BTWFqGYD8aagFTEBQPdwsF.obj
 0003:00000450       $SG23030                   000000018001d450     m_BTWFqGYD8aagFTEBQPdwsF.obj
 0003:000004a0       $SG23032                   000000018001d4a0     m_BTWFqGYD8aagFTEBQPdwsF.obj
 0003:000004c0       $SG23033                   000000018001d4c0     m_BTWFqGYD8aagFTEBQPdwsF.obj
 0003:00000510       $SG23035                   000000018001d510     m_BTWFqGYD8aagFTEBQPdwsF.obj
 0003:00000520       $SG23036                   000000018001d520     m_BTWFqGYD8aagFTEBQPdwsF.obj
 0003:00000580       $SG23038                   000000018001d580     m_BTWFqGYD8aagFTEBQPdwsF.obj
 0003:00000590       $SG23039                   000000018001d590     m_BTWFqGYD8aagFTEBQPdwsF.obj
 0003:000005f0       $SG23041                   000000018001d5f0     m_BTWFqGYD8aagFTEBQPdwsF.obj
 0003:00000600       $SG23042                   000000018001d600     m_BTWFqGYD8aagFTEBQPdwsF.obj
 0003:00000660       $SG23044                   000000018001d660     m_BTWFqGYD8aagFTEBQPdwsF.obj
 0003:00000670       $SG23045                   000000018001d670     m_BTWFqGYD8aagFTEBQPdwsF.obj
 0003:000006d0       $SG23047                   000000018001d6d0     m_BTWFqGYD8aagFTEBQPdwsF.obj
 0003:000006e0       $SG23048                   000000018001d6e0     m_BTWFqGYD8aagFTEBQPdwsF.obj
 0003:00000740       $SG23050                   000000018001d740     m_BTWFqGYD8aagFTEBQPdwsF.obj
 0003:00000758       $SG23053                   000000018001d758     m_BTWFqGYD8aagFTEBQPdwsF.obj
 0003:00000770       $SG23051                   000000018001d770     m_BTWFqGYD8aagFTEBQPdwsF.obj
 0003:000007d0       $SG23054                   000000018001d7d0     m_BTWFqGYD8aagFTEBQPdwsF.obj
 0003:00000830       $SG23056                   000000018001d830     m_BTWFqGYD8aagFTEBQPdwsF.obj
 0003:00000840       $SG23057                   000000018001d840     m_BTWFqGYD8aagFTEBQPdwsF.obj
 0003:000008a0       $SG23059                   000000018001d8a0     m_BTWFqGYD8aagFTEBQPdwsF.obj
 0003:000008b0       $SG23060                   000000018001d8b0     m_BTWFqGYD8aagFTEBQPdwsF.obj
 0003:00000910       $SG23062                   000000018001d910     m_BTWFqGYD8aagFTEBQPdwsF.obj
 0003:00000920       $SG23063                   000000018001d920     m_BTWFqGYD8aagFTEBQPdwsF.obj
 0003:00000978       $SG23065                   000000018001d978     m_BTWFqGYD8aagFTEBQPdwsF.obj
 0003:00000990       $SG23066                   000000018001d990     m_BTWFqGYD8aagFTEBQPdwsF.obj
 0003:000009e8       $SG23068                   000000018001d9e8     m_BTWFqGYD8aagFTEBQPdwsF.obj
 0003:00000a00       $SG23069                   000000018001da00     m_BTWFqGYD8aagFTEBQPdwsF.obj
 0003:00000a60       $SG23075                   000000018001da60     m_BTWFqGYD8aagFTEBQPdwsF.obj
 0003:00000a70       $SG23076                   000000018001da70     m_BTWFqGYD8aagFTEBQPdwsF.obj
 0003:00000ad0       $SG23079                   000000018001dad0     m_BTWFqGYD8aagFTEBQPdwsF.obj
 0003:00000ae0       $SG23080                   000000018001dae0     m_BTWFqGYD8aagFTEBQPdwsF.obj
 0003:00000b40       $SG23083                   000000018001db40     m_BTWFqGYD8aagFTEBQPdwsF.obj
 0003:00000b50       $SG23084                   000000018001db50     m_BTWFqGYD8aagFTEBQPdwsF.obj
 0003:00000bb0       $SG23089                   000000018001dbb0     m_BTWFqGYD8aagFTEBQPdwsF.obj
 0003:00000bc0       $SG23090                   000000018001dbc0     m_BTWFqGYD8aagFTEBQPdwsF.obj
 0003:00000c20       $SG23092                   000000018001dc20     m_BTWFqGYD8aagFTEBQPdwsF.obj
 0003:00000c30       $SG23093                   000000018001dc30     m_BTWFqGYD8aagFTEBQPdwsF.obj
 0003:00000c90       $SG23095                   000000018001dc90     m_BTWFqGYD8aagFTEBQPdwsF.obj
 0003:00000ca8       $SG23098                   000000018001dca8     m_BTWFqGYD8aagFTEBQPdwsF.obj
 0003:00000cc0       $SG23096                   000000018001dcc0     m_BTWFqGYD8aagFTEBQPdwsF.obj
 0003:00000d20       $SG23099                   000000018001dd20     m_BTWFqGYD8aagFTEBQPdwsF.obj
 0003:00000d80       $SG23101                   000000018001dd80     m_BTWFqGYD8aagFTEBQPdwsF.obj
 0003:00000d90       $SG23102                   000000018001dd90     m_BTWFqGYD8aagFTEBQPdwsF.obj
 0003:00000de8       $SG23104                   000000018001dde8     m_BTWFqGYD8aagFTEBQPdwsF.obj
 0003:00000e00       $SG23105                   000000018001de00     m_BTWFqGYD8aagFTEBQPdwsF.obj
 0003:00000e58       $SG24426                   000000018001de58     m_BTWFqGYD8aagFTEBQPdwsF.obj
 0003:00000e68       $SG24427                   000000018001de68     m_BTWFqGYD8aagFTEBQPdwsF.obj
 0003:00000e80       $SG24428                   000000018001de80     m_BTWFqGYD8aagFTEBQPdwsF.obj
 0003:00000e90       $SG24429                   000000018001de90     m_BTWFqGYD8aagFTEBQPdwsF.obj
 0003:00000ea0       $SG24430                   000000018001dea0     m_BTWFqGYD8aagFTEBQPdwsF.obj
 0003:00000eb8       $SG24431                   000000018001deb8     m_BTWFqGYD8aagFTEBQPdwsF.obj
 0003:00000ed0       $SG24432                   000000018001ded0     m_BTWFqGYD8aagFTEBQPdwsF.obj
 0003:00000ee8       $SG24433                   000000018001dee8     m_BTWFqGYD8aagFTEBQPdwsF.obj
 0003:00000ef8       $SG24434                   000000018001def8     m_BTWFqGYD8aagFTEBQPdwsF.obj
 0003:00000f10       $SG24435                   000000018001df10     m_BTWFqGYD8aagFTEBQPdwsF.obj
 0003:00000f28       $SG24436                   000000018001df28     m_BTWFqGYD8aagFTEBQPdwsF.obj
 0003:00000f38       $SG24437                   000000018001df38     m_BTWFqGYD8aagFTEBQPdwsF.obj
 0003:00000f50       $SG24439                   000000018001df50     m_BTWFqGYD8aagFTEBQPdwsF.obj
 0003:00000f60       $SG24440                   000000018001df60     m_BTWFqGYD8aagFTEBQPdwsF.obj
 0003:00000f78       $SG24441                   000000018001df78     m_BTWFqGYD8aagFTEBQPdwsF.obj
 0003:00000f90       $SG24442                   000000018001df90     m_BTWFqGYD8aagFTEBQPdwsF.obj
 0003:00000fa8       $SG24443                   000000018001dfa8     m_BTWFqGYD8aagFTEBQPdwsF.obj
 0003:00000fc0       $SG24444                   000000018001dfc0     m_BTWFqGYD8aagFTEBQPdwsF.obj
 0003:00000fd8       $SG24538                   000000018001dfd8     m_BTWFqGYD8aagFTEBQPdwsF.obj
 0003:00000fe8       $SG24539                   000000018001dfe8     m_BTWFqGYD8aagFTEBQPdwsF.obj
 0003:00001000       $SG24540                   000000018001e000     m_BTWFqGYD8aagFTEBQPdwsF.obj
 0003:00001010       $SG24541                   000000018001e010     m_BTWFqGYD8aagFTEBQPdwsF.obj
 0003:00001020       $SG24542                   000000018001e020     m_BTWFqGYD8aagFTEBQPdwsF.obj
 0003:00001038       $SG24543                   000000018001e038     m_BTWFqGYD8aagFTEBQPdwsF.obj
 0003:00001050       $SG24544                   000000018001e050     m_BTWFqGYD8aagFTEBQPdwsF.obj
 0003:00001068       $SG24545                   000000018001e068     m_BTWFqGYD8aagFTEBQPdwsF.obj
 0003:00001078       $SG24546                   000000018001e078     m_BTWFqGYD8aagFTEBQPdwsF.obj
 0003:00001090       $SG24547                   000000018001e090     m_BTWFqGYD8aagFTEBQPdwsF.obj
 0003:000010a8       $SG24548                   000000018001e0a8     m_BTWFqGYD8aagFTEBQPdwsF.obj
 0003:000010b8       $SG24549                   000000018001e0b8     m_BTWFqGYD8aagFTEBQPdwsF.obj
 0003:000010d0       $SG24551                   000000018001e0d0     m_BTWFqGYD8aagFTEBQPdwsF.obj
 0003:000010e0       $SG24552                   000000018001e0e0     m_BTWFqGYD8aagFTEBQPdwsF.obj
 0003:000010f8       $SG24553                   000000018001e0f8     m_BTWFqGYD8aagFTEBQPdwsF.obj
 0003:00001110       $SG24554                   000000018001e110     m_BTWFqGYD8aagFTEBQPdwsF.obj
 0003:00001128       $SG24555                   000000018001e128     m_BTWFqGYD8aagFTEBQPdwsF.obj
 0003:00001140       $SG24556                   000000018001e140     m_BTWFqGYD8aagFTEBQPdwsF.obj
 0003:00001154       ?correctedValue@?1??mw__internal__call__setup@@9@9 000000018001e154     m_BTWFqGYD8aagFTEBQPdwsF.obj
 0003:00001158       emlrtRSI                   000000018001e158     m_BTWFqGYD8aagFTEBQPdwsF.obj
 0003:00001170       b_emlrtRSI                 000000018001e170     m_BTWFqGYD8aagFTEBQPdwsF.obj
 0003:00001188       c_emlrtRSI                 000000018001e188     m_BTWFqGYD8aagFTEBQPdwsF.obj
 0003:000011a0       d_emlrtRSI                 000000018001e1a0     m_BTWFqGYD8aagFTEBQPdwsF.obj
 0003:000011b8       e_emlrtRSI                 000000018001e1b8     m_BTWFqGYD8aagFTEBQPdwsF.obj
 0003:000011d0       f_emlrtRSI                 000000018001e1d0     m_BTWFqGYD8aagFTEBQPdwsF.obj
 0003:000011e8       g_emlrtRSI                 000000018001e1e8     m_BTWFqGYD8aagFTEBQPdwsF.obj
 0003:00001200       h_emlrtRSI                 000000018001e200     m_BTWFqGYD8aagFTEBQPdwsF.obj
 0003:00001218       i_emlrtRSI                 000000018001e218     m_BTWFqGYD8aagFTEBQPdwsF.obj
 0003:00001230       j_emlrtRSI                 000000018001e230     m_BTWFqGYD8aagFTEBQPdwsF.obj
 0003:00001248       k_emlrtRSI                 000000018001e248     m_BTWFqGYD8aagFTEBQPdwsF.obj
 0003:00001260       l_emlrtRSI                 000000018001e260     m_BTWFqGYD8aagFTEBQPdwsF.obj
 0003:00001278       m_emlrtRSI                 000000018001e278     m_BTWFqGYD8aagFTEBQPdwsF.obj
 0003:00001290       n_emlrtRSI                 000000018001e290     m_BTWFqGYD8aagFTEBQPdwsF.obj
 0003:000012a8       o_emlrtRSI                 000000018001e2a8     m_BTWFqGYD8aagFTEBQPdwsF.obj
 0003:000012c0       p_emlrtRSI                 000000018001e2c0     m_BTWFqGYD8aagFTEBQPdwsF.obj
 0003:000012d8       q_emlrtRSI                 000000018001e2d8     m_BTWFqGYD8aagFTEBQPdwsF.obj
 0003:000012f0       r_emlrtRSI                 000000018001e2f0     m_BTWFqGYD8aagFTEBQPdwsF.obj
 0003:00001308       s_emlrtRSI                 000000018001e308     m_BTWFqGYD8aagFTEBQPdwsF.obj
 0003:00001320       t_emlrtRSI                 000000018001e320     m_BTWFqGYD8aagFTEBQPdwsF.obj
 0003:00001338       u_emlrtRSI                 000000018001e338     m_BTWFqGYD8aagFTEBQPdwsF.obj
 0003:00001350       v_emlrtRSI                 000000018001e350     m_BTWFqGYD8aagFTEBQPdwsF.obj
 0003:00001368       w_emlrtRSI                 000000018001e368     m_BTWFqGYD8aagFTEBQPdwsF.obj
 0003:00001380       x_emlrtRSI                 000000018001e380     m_BTWFqGYD8aagFTEBQPdwsF.obj
 0003:00001398       y_emlrtRSI                 000000018001e398     m_BTWFqGYD8aagFTEBQPdwsF.obj
 0003:000013b0       ab_emlrtRSI                000000018001e3b0     m_BTWFqGYD8aagFTEBQPdwsF.obj
 0003:000013c8       bb_emlrtRSI                000000018001e3c8     m_BTWFqGYD8aagFTEBQPdwsF.obj
 0003:000013e0       cb_emlrtRSI                000000018001e3e0     m_BTWFqGYD8aagFTEBQPdwsF.obj
 0003:000013f8       emlrtMCI                   000000018001e3f8     m_BTWFqGYD8aagFTEBQPdwsF.obj
 0003:00001410       b_emlrtMCI                 000000018001e410     m_BTWFqGYD8aagFTEBQPdwsF.obj
 0003:00001428       c_emlrtMCI                 000000018001e428     m_BTWFqGYD8aagFTEBQPdwsF.obj
 0003:00001440       d_emlrtMCI                 000000018001e440     m_BTWFqGYD8aagFTEBQPdwsF.obj
 0003:00001458       e_emlrtMCI                 000000018001e458     m_BTWFqGYD8aagFTEBQPdwsF.obj
 0003:00001470       f_emlrtMCI                 000000018001e470     m_BTWFqGYD8aagFTEBQPdwsF.obj
 0003:00001488       g_emlrtMCI                 000000018001e488     m_BTWFqGYD8aagFTEBQPdwsF.obj
 0003:000014a0       emlrtECI                   000000018001e4a0     m_BTWFqGYD8aagFTEBQPdwsF.obj
 0003:000014c0       emlrtBCI                   000000018001e4c0     m_BTWFqGYD8aagFTEBQPdwsF.obj
 0003:000014f0       b_emlrtBCI                 000000018001e4f0     m_BTWFqGYD8aagFTEBQPdwsF.obj
 0003:00001520       c_emlrtBCI                 000000018001e520     m_BTWFqGYD8aagFTEBQPdwsF.obj
 0003:00001550       db_emlrtRSI                000000018001e550     m_BTWFqGYD8aagFTEBQPdwsF.obj
 0003:00001568       eb_emlrtRSI                000000018001e568     m_BTWFqGYD8aagFTEBQPdwsF.obj
 0003:00001580       fb_emlrtRSI                000000018001e580     m_BTWFqGYD8aagFTEBQPdwsF.obj
 0003:00001598       gb_emlrtRSI                000000018001e598     m_BTWFqGYD8aagFTEBQPdwsF.obj
 0003:000015b0       hb_emlrtRSI                000000018001e5b0     m_BTWFqGYD8aagFTEBQPdwsF.obj
 0003:000015c8       ib_emlrtRSI                000000018001e5c8     m_BTWFqGYD8aagFTEBQPdwsF.obj
 0003:000015e0       jb_emlrtRSI                000000018001e5e0     m_BTWFqGYD8aagFTEBQPdwsF.obj
 0003:000015f8       $SG23517                   000000018001e5f8     m_BTWFqGYD8aagFTEBQPdwsF.obj
 0003:00001610       $SG23518                   000000018001e610     m_BTWFqGYD8aagFTEBQPdwsF.obj
 0003:00001638       $SG23540                   000000018001e638     m_BTWFqGYD8aagFTEBQPdwsF.obj
 0003:00001644       ?r_u@?1??CarrierSynchronizer_set_NormalizedLoopBandwidth@@9@9 000000018001e644     m_BTWFqGYD8aagFTEBQPdwsF.obj
 0003:00001648       $SG23541                   000000018001e648     m_BTWFqGYD8aagFTEBQPdwsF.obj
 0003:00001664       ?b_b@?1??SystemCore_setup@@9@9 000000018001e664     m_BTWFqGYD8aagFTEBQPdwsF.obj
 0003:00001668       ?f_u@?1??CarrierSynchronizer_set_SamplesPerSymbol@@9@9 000000018001e668     m_BTWFqGYD8aagFTEBQPdwsF.obj
 0003:00001698       ?p_u@?1??CarrierSynchronizer_set_SamplesPerSymbol@@9@9 000000018001e698     m_BTWFqGYD8aagFTEBQPdwsF.obj
 0003:000016c8       ?j_u@?1??CarrierSynchronizer_set_SamplesPerSymbol@@9@9 000000018001e6c8     m_BTWFqGYD8aagFTEBQPdwsF.obj
 0003:000016f8       ?n_u@?1??CarrierSynchronizer_set_SamplesPerSymbol@@9@9 000000018001e6f8     m_BTWFqGYD8aagFTEBQPdwsF.obj
 0003:00001728       ?b_u@?1??CarrierSynchronizer_set_SamplesPerSymbol@@9@9 000000018001e728     m_BTWFqGYD8aagFTEBQPdwsF.obj
 0003:00001740       ?m_u@?1??CarrierSynchronizer_set_SamplesPerSymbol@@9@9 000000018001e740     m_BTWFqGYD8aagFTEBQPdwsF.obj
 0003:00001758       ?e_u@?1??CarrierSynchronizer_set_SamplesPerSymbol@@9@9 000000018001e758     m_BTWFqGYD8aagFTEBQPdwsF.obj
 0003:00001770       ?i_u@?1??CarrierSynchronizer_set_SamplesPerSymbol@@9@9 000000018001e770     m_BTWFqGYD8aagFTEBQPdwsF.obj
 0003:00001788       ?k_u@?1??CarrierSynchronizer_set_SamplesPerSymbol@@9@9 000000018001e788     m_BTWFqGYD8aagFTEBQPdwsF.obj
 0003:00001798       ?f_u@?1??CarrierSynchronizer_set_DampingFactor@@9@9 000000018001e798     m_BTWFqGYD8aagFTEBQPdwsF.obj
 0003:000017c8       ?j_u@?1??CarrierSynchronizer_set_DampingFactor@@9@9 000000018001e7c8     m_BTWFqGYD8aagFTEBQPdwsF.obj
 0003:000017f8       ?l_u@?1??CarrierSynchronizer_set_DampingFactor@@9@9 000000018001e7f8     m_BTWFqGYD8aagFTEBQPdwsF.obj
 0003:00001828       ?b_u@?1??CarrierSynchronizer_set_DampingFactor@@9@9 000000018001e828     m_BTWFqGYD8aagFTEBQPdwsF.obj
 0003:00001840       ?e_u@?1??CarrierSynchronizer_set_DampingFactor@@9@9 000000018001e840     m_BTWFqGYD8aagFTEBQPdwsF.obj
 0003:00001858       ?i_u@?1??CarrierSynchronizer_set_DampingFactor@@9@9 000000018001e858     m_BTWFqGYD8aagFTEBQPdwsF.obj
 0003:00001870       ?k_u@?1??CarrierSynchronizer_set_DampingFactor@@9@9 000000018001e870     m_BTWFqGYD8aagFTEBQPdwsF.obj
 0003:00001880       ?m_u@?1??CarrierSynchronizer_set_NormalizedLoopBandwidth@@9@9 000000018001e880     m_BTWFqGYD8aagFTEBQPdwsF.obj
 0003:000018b0       ?q_u@?1??CarrierSynchronizer_set_NormalizedLoopBandwidth@@9@9 000000018001e8b0     m_BTWFqGYD8aagFTEBQPdwsF.obj
 0003:000018e0       ?s_u@?1??CarrierSynchronizer_set_NormalizedLoopBandwidth@@9@9 000000018001e8e0     m_BTWFqGYD8aagFTEBQPdwsF.obj
 0003:00001910       ?f_u@?1??CarrierSynchronizer_set_NormalizedLoopBandwidth@@9@9 000000018001e910     m_BTWFqGYD8aagFTEBQPdwsF.obj
 0003:00001938       ?h_u@?1??CarrierSynchronizer_set_NormalizedLoopBandwidth@@9@9 000000018001e938     m_BTWFqGYD8aagFTEBQPdwsF.obj
 0003:00001950       ?i_u@?1??CarrierSynchronizer_set_NormalizedLoopBandwidth@@9@9 000000018001e950     m_BTWFqGYD8aagFTEBQPdwsF.obj
 0003:00001968       ?l_u@?1??CarrierSynchronizer_set_NormalizedLoopBandwidth@@9@9 000000018001e968     m_BTWFqGYD8aagFTEBQPdwsF.obj
 0003:00001980       ?o_u@?1??CarrierSynchronizer_set_NormalizedLoopBandwidth@@9@9 000000018001e980     m_BTWFqGYD8aagFTEBQPdwsF.obj
 0003:00001998       ?e_u@?1??CarrierSynchronizer_set_NormalizedLoopBandwidth@@9@9 000000018001e998     m_BTWFqGYD8aagFTEBQPdwsF.obj
 0003:000019ac       ?correctedValue@?1??mw__internal__call__reset@@9@9 000000018001e9ac     m_BTWFqGYD8aagFTEBQPdwsF.obj
 0003:000019b0       ?b_u@?1??CarrierSynchronizer_set_NormalizedLoopBandwidth@@9@9 000000018001e9b0     m_BTWFqGYD8aagFTEBQPdwsF.obj
 0003:000019c4       ?correctedValue@?1??mw__internal__system___fcn@@9@9 000000018001e9c4     m_BTWFqGYD8aagFTEBQPdwsF.obj
 0003:000019c8       ?b_u@?1??SystemCore_setup@@9@9 000000018001e9c8     m_BTWFqGYD8aagFTEBQPdwsF.obj
 0003:000019fc       ?d_u@?1??SystemCore_setup@@9@9 000000018001e9fc     m_BTWFqGYD8aagFTEBQPdwsF.obj
 0003:00001a04       ?d_u@?1??mw__internal__system___fcn@@9@9 000000018001ea04     m_BTWFqGYD8aagFTEBQPdwsF.obj
 0003:00001a08       ?b_u@?1??SystemCore_checkTunablePropChange@@9@9 000000018001ea08     m_BTWFqGYD8aagFTEBQPdwsF.obj
 0003:00001a34       $SG24448                   000000018001ea34     m_BTWFqGYD8aagFTEBQPdwsF.obj
 0003:00001a38       ?b_u@?1??mw__internal__call__reset@@9@9 000000018001ea38     m_BTWFqGYD8aagFTEBQPdwsF.obj
 0003:00001a68       ?d_u@?1??mw__internal__call__reset@@9@9 000000018001ea68     m_BTWFqGYD8aagFTEBQPdwsF.obj
 0003:00001a94       ?f_u@?1??mw__internal__call__reset@@9@9 000000018001ea94     m_BTWFqGYD8aagFTEBQPdwsF.obj
 0003:00001a9c       $SG24459                   000000018001ea9c     m_BTWFqGYD8aagFTEBQPdwsF.obj
 0003:00001aa4       $SG24630                   000000018001eaa4     m_BTWFqGYD8aagFTEBQPdwsF.obj
 0003:00001aa8       ?b_u@?1??mw__internal__system___fcn@@9@9 000000018001eaa8     m_BTWFqGYD8aagFTEBQPdwsF.obj
 0003:00001ad8       ?sv1@?1??emlrt_marshallOut@@9@9 000000018001ead8     m_BTWFqGYD8aagFTEBQPdwsF.obj
 0003:00001ae0       ?sv@?1??emlrt_marshallOut@@9@9 000000018001eae0     m_BTWFqGYD8aagFTEBQPdwsF.obj
 0003:00001b78       $SG24446                   000000018001eb78     m_BTWFqGYD8aagFTEBQPdwsF.obj
 0003:00001b88       $SG24447                   000000018001eb88     m_BTWFqGYD8aagFTEBQPdwsF.obj
 0003:00001b9c       $SG24631                   000000018001eb9c     m_BTWFqGYD8aagFTEBQPdwsF.obj
 0003:00001ba0       $SG24449                   000000018001eba0     m_BTWFqGYD8aagFTEBQPdwsF.obj
 0003:00001bb0       $SG24450                   000000018001ebb0     m_BTWFqGYD8aagFTEBQPdwsF.obj
 0003:00001bc0       $SG24451                   000000018001ebc0     m_BTWFqGYD8aagFTEBQPdwsF.obj
 0003:00001bd8       $SG24452                   000000018001ebd8     m_BTWFqGYD8aagFTEBQPdwsF.obj
 0003:00001bec       $SG24486                   000000018001ebec     m_BTWFqGYD8aagFTEBQPdwsF.obj
 0003:00001bf8       $SG24453                   000000018001ebf8     m_BTWFqGYD8aagFTEBQPdwsF.obj
 0003:00001c10       $SG24454                   000000018001ec10     m_BTWFqGYD8aagFTEBQPdwsF.obj
 0003:00001c20       $SG24455                   000000018001ec20     m_BTWFqGYD8aagFTEBQPdwsF.obj
 0003:00001c38       $SG24456                   000000018001ec38     m_BTWFqGYD8aagFTEBQPdwsF.obj
 0003:00001c50       $SG24457                   000000018001ec50     m_BTWFqGYD8aagFTEBQPdwsF.obj
 0003:00001c60       $SG24458                   000000018001ec60     m_BTWFqGYD8aagFTEBQPdwsF.obj
 0003:00001c78       $SG24460                   000000018001ec78     m_BTWFqGYD8aagFTEBQPdwsF.obj
 0003:00001c88       $SG24461                   000000018001ec88     m_BTWFqGYD8aagFTEBQPdwsF.obj
 0003:00001ca0       $SG24462                   000000018001eca0     m_BTWFqGYD8aagFTEBQPdwsF.obj
 0003:00001cb8       $SG24463                   000000018001ecb8     m_BTWFqGYD8aagFTEBQPdwsF.obj
 0003:00001cd0       $SG24464                   000000018001ecd0     m_BTWFqGYD8aagFTEBQPdwsF.obj
 0003:00001ce8       $SG24465                   000000018001ece8     m_BTWFqGYD8aagFTEBQPdwsF.obj
 0003:00001cfc       $SG24487                   000000018001ecfc     m_BTWFqGYD8aagFTEBQPdwsF.obj
 0003:00001d08       $SG24488                   000000018001ed08     m_BTWFqGYD8aagFTEBQPdwsF.obj
 0003:00001d20       $SG24489                   000000018001ed20     m_BTWFqGYD8aagFTEBQPdwsF.obj
 0003:00001d38       $SG24557                   000000018001ed38     m_BTWFqGYD8aagFTEBQPdwsF.obj
 0003:00001d48       $SG24559                   000000018001ed48     m_BTWFqGYD8aagFTEBQPdwsF.obj
 0003:00001d60       ?fieldNames@?1??c_emlrt_marshallIn@@9@9 000000018001ed60     m_BTWFqGYD8aagFTEBQPdwsF.obj
 0003:00001df8       $SG24558                   000000018001edf8     m_BTWFqGYD8aagFTEBQPdwsF.obj
 0003:00001e08       $SG24560                   000000018001ee08     m_BTWFqGYD8aagFTEBQPdwsF.obj
 0003:00001e20       $SG24561                   000000018001ee20     m_BTWFqGYD8aagFTEBQPdwsF.obj
 0003:00001e30       $SG24562                   000000018001ee30     m_BTWFqGYD8aagFTEBQPdwsF.obj
 0003:00001e40       $SG24563                   000000018001ee40     m_BTWFqGYD8aagFTEBQPdwsF.obj
 0003:00001e50       $SG24564                   000000018001ee50     m_BTWFqGYD8aagFTEBQPdwsF.obj
 0003:00001e60       $SG24565                   000000018001ee60     m_BTWFqGYD8aagFTEBQPdwsF.obj
 0003:00001e78       $SG24566                   000000018001ee78     m_BTWFqGYD8aagFTEBQPdwsF.obj
 0003:00001e90       $SG24567                   000000018001ee90     m_BTWFqGYD8aagFTEBQPdwsF.obj
 0003:00001ea8       $SG24568                   000000018001eea8     m_BTWFqGYD8aagFTEBQPdwsF.obj
 0003:00001ec0       $SG24569                   000000018001eec0     m_BTWFqGYD8aagFTEBQPdwsF.obj
 0003:00001ed8       $SG24570                   000000018001eed8     m_BTWFqGYD8aagFTEBQPdwsF.obj
 0003:00001ef0       $SG24571                   000000018001eef0     m_BTWFqGYD8aagFTEBQPdwsF.obj
 0003:00001f00       $SG24572                   000000018001ef00     m_BTWFqGYD8aagFTEBQPdwsF.obj
 0003:00001f10       $SG24573                   000000018001ef10     m_BTWFqGYD8aagFTEBQPdwsF.obj
 0003:00001f28       $SG24574                   000000018001ef28     m_BTWFqGYD8aagFTEBQPdwsF.obj
 0003:00001f40       $SG24575                   000000018001ef40     m_BTWFqGYD8aagFTEBQPdwsF.obj
 0003:00001f58       $SG24576                   000000018001ef58     m_BTWFqGYD8aagFTEBQPdwsF.obj
 0003:00001f70       $SG24577                   000000018001ef70     m_BTWFqGYD8aagFTEBQPdwsF.obj
 0003:00001f80       $SG24578                   000000018001ef80     m_BTWFqGYD8aagFTEBQPdwsF.obj
 0003:00001f90       $SG24579                   000000018001ef90     m_BTWFqGYD8aagFTEBQPdwsF.obj
 0003:00001fa8       $SG24580                   000000018001efa8     m_BTWFqGYD8aagFTEBQPdwsF.obj
 0003:00001fc0       $SG24581                   000000018001efc0     m_BTWFqGYD8aagFTEBQPdwsF.obj
 0003:00001fc8       $SG24582                   000000018001efc8     m_BTWFqGYD8aagFTEBQPdwsF.obj
 0003:00001fd0       $SG24583                   000000018001efd0     m_BTWFqGYD8aagFTEBQPdwsF.obj
 0003:00001fe0       $SG24584                   000000018001efe0     m_BTWFqGYD8aagFTEBQPdwsF.obj
 0003:00001ff0       $SG24585                   000000018001eff0     m_BTWFqGYD8aagFTEBQPdwsF.obj
 0003:00002008       $SG24586                   000000018001f008     m_BTWFqGYD8aagFTEBQPdwsF.obj
 0003:00002020       $SG24587                   000000018001f020     m_BTWFqGYD8aagFTEBQPdwsF.obj
 0003:00002038       $SG24588                   000000018001f038     m_BTWFqGYD8aagFTEBQPdwsF.obj
 0003:00002050       $SG24589                   000000018001f050     m_BTWFqGYD8aagFTEBQPdwsF.obj
 0003:00002068       $SG24590                   000000018001f068     m_BTWFqGYD8aagFTEBQPdwsF.obj
 0003:00002080       $SG24591                   000000018001f080     m_BTWFqGYD8aagFTEBQPdwsF.obj
 0003:00002098       $SG24592                   000000018001f098     m_BTWFqGYD8aagFTEBQPdwsF.obj
 0003:000020b0       $SG24593                   000000018001f0b0     m_BTWFqGYD8aagFTEBQPdwsF.obj
 0003:000020c8       $SG24594                   000000018001f0c8     m_BTWFqGYD8aagFTEBQPdwsF.obj
 0003:000020e0       ?fieldNames@?1??f_emlrt_marshallIn@@9@9 000000018001f0e0     m_BTWFqGYD8aagFTEBQPdwsF.obj
 0003:000020e8       $SG24705                   000000018001f0e8     m_BTWFqGYD8aagFTEBQPdwsF.obj
 0003:000020f0       $SG24716                   000000018001f0f0     m_BTWFqGYD8aagFTEBQPdwsF.obj
 0003:000020fc       $SG24729                   000000018001f0fc     m_BTWFqGYD8aagFTEBQPdwsF.obj
 0003:00002108       $SG24746                   000000018001f108     m_BTWFqGYD8aagFTEBQPdwsF.obj
 0003:00002110       $SG24757                   000000018001f110     m_BTWFqGYD8aagFTEBQPdwsF.obj
 0003:00002118       $SG24771                   000000018001f118     m_BTWFqGYD8aagFTEBQPdwsF.obj
 0003:00002120       $SG24784                   000000018001f120     m_BTWFqGYD8aagFTEBQPdwsF.obj
 0003:00002128       $SG24804                   000000018001f128     m_BTWFqGYD8aagFTEBQPdwsF.obj
 0003:00002130       $SG24819                   000000018001f130     m_BTWFqGYD8aagFTEBQPdwsF.obj
 0003:00002138       $SG24833                   000000018001f138     m_BTWFqGYD8aagFTEBQPdwsF.obj
 0003:00002140       $SG24847                   000000018001f140     m_BTWFqGYD8aagFTEBQPdwsF.obj
 0003:00002148       $SG24861                   000000018001f148     m_BTWFqGYD8aagFTEBQPdwsF.obj
 0003:00002150       $SG25052                   000000018001f150     m_BTWFqGYD8aagFTEBQPdwsF.obj
 0003:00002160       $SG25053                   000000018001f160     m_BTWFqGYD8aagFTEBQPdwsF.obj
 0003:0000216c       $SG25054                   000000018001f16c     m_BTWFqGYD8aagFTEBQPdwsF.obj
 0003:00002178       $SG25055                   000000018001f178     m_BTWFqGYD8aagFTEBQPdwsF.obj
 0003:00002188       $SG25062                   000000018001f188     m_BTWFqGYD8aagFTEBQPdwsF.obj
 0003:000021b0       $SG25071                   000000018001f1b0     m_BTWFqGYD8aagFTEBQPdwsF.obj
 0003:000021c0       $SG25073                   000000018001f1c0     m_BTWFqGYD8aagFTEBQPdwsF.obj
 0003:000021d8       $SG25074                   000000018001f1d8     m_BTWFqGYD8aagFTEBQPdwsF.obj
 0003:000021e8       $SG25075                   000000018001f1e8     m_BTWFqGYD8aagFTEBQPdwsF.obj
 0003:00002210       $SG23019                   000000018001f210     m_FpwZVT78uS5A5Xdp3o5d3.obj
 0003:0000221c       $SG23067                   000000018001f21c     m_FpwZVT78uS5A5Xdp3o5d3.obj
 0003:00002220       $SG23020                   000000018001f220     m_FpwZVT78uS5A5Xdp3o5d3.obj
 0003:00002270       $SG23022                   000000018001f270     m_FpwZVT78uS5A5Xdp3o5d3.obj
 0003:00002280       $SG23023                   000000018001f280     m_FpwZVT78uS5A5Xdp3o5d3.obj
 0003:000022d4       $SG23025                   000000018001f2d4     m_FpwZVT78uS5A5Xdp3o5d3.obj
 0003:000022e0       $SG23026                   000000018001f2e0     m_FpwZVT78uS5A5Xdp3o5d3.obj
 0003:00002334       $SG23028                   000000018001f334     m_FpwZVT78uS5A5Xdp3o5d3.obj
 0003:00002340       $SG23029                   000000018001f340     m_FpwZVT78uS5A5Xdp3o5d3.obj
 0003:0000239c       $SG23070                   000000018001f39c     m_FpwZVT78uS5A5Xdp3o5d3.obj
 0003:000023a0       $SG23031                   000000018001f3a0     m_FpwZVT78uS5A5Xdp3o5d3.obj
 0003:000023b0       $SG23032                   000000018001f3b0     m_FpwZVT78uS5A5Xdp3o5d3.obj
 0003:00002410       $SG23034                   000000018001f410     m_FpwZVT78uS5A5Xdp3o5d3.obj
 0003:00002420       $SG23035                   000000018001f420     m_FpwZVT78uS5A5Xdp3o5d3.obj
 0003:00002480       $SG23049                   000000018001f480     m_FpwZVT78uS5A5Xdp3o5d3.obj
 0003:00002490       $SG23050                   000000018001f490     m_FpwZVT78uS5A5Xdp3o5d3.obj
 0003:000024e4       $SG23073                   000000018001f4e4     m_FpwZVT78uS5A5Xdp3o5d3.obj
 0003:000024e8       $SG23052                   000000018001f4e8     m_FpwZVT78uS5A5Xdp3o5d3.obj
 0003:00002500       $SG23053                   000000018001f500     m_FpwZVT78uS5A5Xdp3o5d3.obj
 0003:00002550       $SG23055                   000000018001f550     m_FpwZVT78uS5A5Xdp3o5d3.obj
 0003:00002560       $SG23056                   000000018001f560     m_FpwZVT78uS5A5Xdp3o5d3.obj
 0003:000025b4       $SG23076                   000000018001f5b4     m_FpwZVT78uS5A5Xdp3o5d3.obj
 0003:000025b8       $SG23058                   000000018001f5b8     m_FpwZVT78uS5A5Xdp3o5d3.obj
 0003:000025c4       $SG23079                   000000018001f5c4     m_FpwZVT78uS5A5Xdp3o5d3.obj
 0003:000025c8       $SG23082                   000000018001f5c8     m_FpwZVT78uS5A5Xdp3o5d3.obj
 0003:000025d0       $SG23059                   000000018001f5d0     m_FpwZVT78uS5A5Xdp3o5d3.obj
 0003:00002620       $SG23061                   000000018001f620     m_FpwZVT78uS5A5Xdp3o5d3.obj
 0003:00002630       $SG23062                   000000018001f630     m_FpwZVT78uS5A5Xdp3o5d3.obj
 0003:00002680       $SG23064                   000000018001f680     m_FpwZVT78uS5A5Xdp3o5d3.obj
 0003:00002690       $SG23065                   000000018001f690     m_FpwZVT78uS5A5Xdp3o5d3.obj
 0003:000026e0       $SG23068                   000000018001f6e0     m_FpwZVT78uS5A5Xdp3o5d3.obj
 0003:00002724       $SG23085                   000000018001f724     m_FpwZVT78uS5A5Xdp3o5d3.obj
 0003:00002728       $SG23088                   000000018001f728     m_FpwZVT78uS5A5Xdp3o5d3.obj
 0003:00002730       $SG23071                   000000018001f730     m_FpwZVT78uS5A5Xdp3o5d3.obj
 0003:00002774       $SG23238                   000000018001f774     m_FpwZVT78uS5A5Xdp3o5d3.obj
 0003:00002778       $SG23094                   000000018001f778     m_FpwZVT78uS5A5Xdp3o5d3.obj
 0003:00002790       $SG23074                   000000018001f790     m_FpwZVT78uS5A5Xdp3o5d3.obj
 0003:000027d4       $SG23244                   000000018001f7d4     m_FpwZVT78uS5A5Xdp3o5d3.obj
 0003:000027e0       $SG23077                   000000018001f7e0     m_FpwZVT78uS5A5Xdp3o5d3.obj
 0003:00002824       $SG23247                   000000018001f824     m_FpwZVT78uS5A5Xdp3o5d3.obj
 0003:00002830       $SG23080                   000000018001f830     m_FpwZVT78uS5A5Xdp3o5d3.obj
 0003:00002874       $SG23259                   000000018001f874     m_FpwZVT78uS5A5Xdp3o5d3.obj
 0003:00002880       $SG23083                   000000018001f880     m_FpwZVT78uS5A5Xdp3o5d3.obj
 0003:000028c4       $SG23283                   000000018001f8c4     m_FpwZVT78uS5A5Xdp3o5d3.obj
 0003:000028c8       $SG23100                   000000018001f8c8     m_FpwZVT78uS5A5Xdp3o5d3.obj
 0003:000028e0       $SG23086                   000000018001f8e0     m_FpwZVT78uS5A5Xdp3o5d3.obj
 0003:00002930       $SG23089                   000000018001f930     m_FpwZVT78uS5A5Xdp3o5d3.obj
 0003:00002978       $SG23091                   000000018001f978     m_FpwZVT78uS5A5Xdp3o5d3.obj
 0003:00002998       $SG23115                   000000018001f998     m_FpwZVT78uS5A5Xdp3o5d3.obj
 0003:000029a0       $SG23092                   000000018001f9a0     m_FpwZVT78uS5A5Xdp3o5d3.obj
 0003:00002a08       $SG23118                   000000018001fa08     m_FpwZVT78uS5A5Xdp3o5d3.obj
 0003:00002a18       $SG23205                   000000018001fa18     m_FpwZVT78uS5A5Xdp3o5d3.obj
 0003:00002a20       $SG23095                   000000018001fa20     m_FpwZVT78uS5A5Xdp3o5d3.obj
 0003:00002a78       $SG23097                   000000018001fa78     m_FpwZVT78uS5A5Xdp3o5d3.obj
 0003:00002a98       $SG23121                   000000018001fa98     m_FpwZVT78uS5A5Xdp3o5d3.obj
 0003:00002aa8       $SG23229                   000000018001faa8     m_FpwZVT78uS5A5Xdp3o5d3.obj
 0003:00002ac0       $SG23098                   000000018001fac0     m_FpwZVT78uS5A5Xdp3o5d3.obj
 0003:00002b28       $SG23136                   000000018001fb28     m_FpwZVT78uS5A5Xdp3o5d3.obj
 0003:00002b38       $SG23145                   000000018001fb38     m_FpwZVT78uS5A5Xdp3o5d3.obj
 0003:00002b48       $SG23268                   000000018001fb48     m_FpwZVT78uS5A5Xdp3o5d3.obj
 0003:00002b60       $SG23101                   000000018001fb60     m_FpwZVT78uS5A5Xdp3o5d3.obj
 0003:00002bc0       $SG23103                   000000018001fbc0     m_FpwZVT78uS5A5Xdp3o5d3.obj
 0003:00002bd0       $SG23104                   000000018001fbd0     m_FpwZVT78uS5A5Xdp3o5d3.obj
 0003:00002c20       $SG23106                   000000018001fc20     m_FpwZVT78uS5A5Xdp3o5d3.obj
 0003:00002c30       $SG23107                   000000018001fc30     m_FpwZVT78uS5A5Xdp3o5d3.obj
 0003:00002c80       $SG23109                   000000018001fc80     m_FpwZVT78uS5A5Xdp3o5d3.obj
 0003:00002c90       $SG23110                   000000018001fc90     m_FpwZVT78uS5A5Xdp3o5d3.obj
 0003:00002ce0       $SG23112                   000000018001fce0     m_FpwZVT78uS5A5Xdp3o5d3.obj
 0003:00002cf0       $SG23113                   000000018001fcf0     m_FpwZVT78uS5A5Xdp3o5d3.obj
 0003:00002d40       $SG23116                   000000018001fd40     m_FpwZVT78uS5A5Xdp3o5d3.obj
 0003:00002d90       $SG23119                   000000018001fd90     m_FpwZVT78uS5A5Xdp3o5d3.obj
 0003:00002de8       $SG23148                   000000018001fde8     m_FpwZVT78uS5A5Xdp3o5d3.obj
 0003:00002e00       $SG23122                   000000018001fe00     m_FpwZVT78uS5A5Xdp3o5d3.obj
 0003:00002e60       $SG23137                   000000018001fe60     m_FpwZVT78uS5A5Xdp3o5d3.obj
 0003:00002eb0       $SG23139                   000000018001feb0     m_FpwZVT78uS5A5Xdp3o5d3.obj
 0003:00002ec0       $SG23140                   000000018001fec0     m_FpwZVT78uS5A5Xdp3o5d3.obj
 0003:00002f10       $SG23142                   000000018001ff10     m_FpwZVT78uS5A5Xdp3o5d3.obj
 0003:00002f20       $SG23143                   000000018001ff20     m_FpwZVT78uS5A5Xdp3o5d3.obj
 0003:00002f70       $SG23146                   000000018001ff70     m_FpwZVT78uS5A5Xdp3o5d3.obj
 0003:00002fd0       $SG23149                   000000018001ffd0     m_FpwZVT78uS5A5Xdp3o5d3.obj
 0003:00003028       $SG23151                   0000000180020028     m_FpwZVT78uS5A5Xdp3o5d3.obj
 0003:00003040       $SG23152                   0000000180020040     m_FpwZVT78uS5A5Xdp3o5d3.obj
 0003:00003090       $SG23154                   0000000180020090     m_FpwZVT78uS5A5Xdp3o5d3.obj
 0003:000030a0       $SG23155                   00000001800200a0     m_FpwZVT78uS5A5Xdp3o5d3.obj
 0003:000030f0       $SG23157                   00000001800200f0     m_FpwZVT78uS5A5Xdp3o5d3.obj
 0003:00003100       $SG23158                   0000000180020100     m_FpwZVT78uS5A5Xdp3o5d3.obj
 0003:00003150       $SG23160                   0000000180020150     m_FpwZVT78uS5A5Xdp3o5d3.obj
 0003:00003160       $SG23161                   0000000180020160     m_FpwZVT78uS5A5Xdp3o5d3.obj
 0003:000031b0       $SG23163                   00000001800201b0     m_FpwZVT78uS5A5Xdp3o5d3.obj
 0003:000031c0       $SG23164                   00000001800201c0     m_FpwZVT78uS5A5Xdp3o5d3.obj
 0003:00003210       $SG23166                   0000000180020210     m_FpwZVT78uS5A5Xdp3o5d3.obj
 0003:00003220       $SG23167                   0000000180020220     m_FpwZVT78uS5A5Xdp3o5d3.obj
 0003:00003270       $SG23169                   0000000180020270     m_FpwZVT78uS5A5Xdp3o5d3.obj
 0003:00003280       $SG23170                   0000000180020280     m_FpwZVT78uS5A5Xdp3o5d3.obj
 0003:000032d0       $SG23172                   00000001800202d0     m_FpwZVT78uS5A5Xdp3o5d3.obj
 0003:000032e0       $SG23173                   00000001800202e0     m_FpwZVT78uS5A5Xdp3o5d3.obj
 0003:00003330       $SG23175                   0000000180020330     m_FpwZVT78uS5A5Xdp3o5d3.obj
 0003:00003340       $SG23176                   0000000180020340     m_FpwZVT78uS5A5Xdp3o5d3.obj
 0003:00003390       $SG23178                   0000000180020390     m_FpwZVT78uS5A5Xdp3o5d3.obj
 0003:000033a0       $SG23179                   00000001800203a0     m_FpwZVT78uS5A5Xdp3o5d3.obj
 0003:000033f0       $SG23181                   00000001800203f0     m_FpwZVT78uS5A5Xdp3o5d3.obj
 0003:00003400       $SG23182                   0000000180020400     m_FpwZVT78uS5A5Xdp3o5d3.obj
 0003:00003450       $SG23184                   0000000180020450     m_FpwZVT78uS5A5Xdp3o5d3.obj
 0003:00003460       $SG23185                   0000000180020460     m_FpwZVT78uS5A5Xdp3o5d3.obj
 0003:000034b0       $SG23187                   00000001800204b0     m_FpwZVT78uS5A5Xdp3o5d3.obj
 0003:000034c0       $SG23188                   00000001800204c0     m_FpwZVT78uS5A5Xdp3o5d3.obj
 0003:00003510       $SG23190                   0000000180020510     m_FpwZVT78uS5A5Xdp3o5d3.obj
 0003:00003520       $SG23191                   0000000180020520     m_FpwZVT78uS5A5Xdp3o5d3.obj
 0003:00003570       $SG23193                   0000000180020570     m_FpwZVT78uS5A5Xdp3o5d3.obj
 0003:00003580       $SG23194                   0000000180020580     m_FpwZVT78uS5A5Xdp3o5d3.obj
 0003:000035d0       $SG23196                   00000001800205d0     m_FpwZVT78uS5A5Xdp3o5d3.obj
 0003:000035e0       $SG23197                   00000001800205e0     m_FpwZVT78uS5A5Xdp3o5d3.obj
 0003:00003630       $SG23199                   0000000180020630     m_FpwZVT78uS5A5Xdp3o5d3.obj
 0003:00003640       $SG23200                   0000000180020640     m_FpwZVT78uS5A5Xdp3o5d3.obj
 0003:00003690       $SG23202                   0000000180020690     m_FpwZVT78uS5A5Xdp3o5d3.obj
 0003:000036a0       $SG23203                   00000001800206a0     m_FpwZVT78uS5A5Xdp3o5d3.obj
 0003:000036f0       $SG23206                   00000001800206f0     m_FpwZVT78uS5A5Xdp3o5d3.obj
 0003:00003740       $SG23208                   0000000180020740     m_FpwZVT78uS5A5Xdp3o5d3.obj
 0003:00003750       $SG23209                   0000000180020750     m_FpwZVT78uS5A5Xdp3o5d3.obj
 0003:000037a0       $SG23211                   00000001800207a0     m_FpwZVT78uS5A5Xdp3o5d3.obj
 0003:000037b0       $SG23212                   00000001800207b0     m_FpwZVT78uS5A5Xdp3o5d3.obj
 0003:00003800       $SG23214                   0000000180020800     m_FpwZVT78uS5A5Xdp3o5d3.obj
 0003:00003810       $SG23215                   0000000180020810     m_FpwZVT78uS5A5Xdp3o5d3.obj
 0003:00003860       $SG23217                   0000000180020860     m_FpwZVT78uS5A5Xdp3o5d3.obj
 0003:00003870       $SG23218                   0000000180020870     m_FpwZVT78uS5A5Xdp3o5d3.obj
 0003:000038c0       $SG23220                   00000001800208c0     m_FpwZVT78uS5A5Xdp3o5d3.obj
 0003:000038d0       $SG23221                   00000001800208d0     m_FpwZVT78uS5A5Xdp3o5d3.obj
 0003:00003920       $SG23223                   0000000180020920     m_FpwZVT78uS5A5Xdp3o5d3.obj
 0003:00003930       $SG23224                   0000000180020930     m_FpwZVT78uS5A5Xdp3o5d3.obj
 0003:00003980       $SG23226                   0000000180020980     m_FpwZVT78uS5A5Xdp3o5d3.obj
 0003:00003990       $SG23227                   0000000180020990     m_FpwZVT78uS5A5Xdp3o5d3.obj
 0003:000039f0       $SG23230                   00000001800209f0     m_FpwZVT78uS5A5Xdp3o5d3.obj
 0003:00003a50       $SG23232                   0000000180020a50     m_FpwZVT78uS5A5Xdp3o5d3.obj
 0003:00003a60       $SG23233                   0000000180020a60     m_FpwZVT78uS5A5Xdp3o5d3.obj
 0003:00003ac0       $SG23235                   0000000180020ac0     m_FpwZVT78uS5A5Xdp3o5d3.obj
 0003:00003ad0       $SG23236                   0000000180020ad0     m_FpwZVT78uS5A5Xdp3o5d3.obj
 0003:00003b30       $SG23239                   0000000180020b30     m_FpwZVT78uS5A5Xdp3o5d3.obj
 0003:00003b78       $SG23241                   0000000180020b78     m_FpwZVT78uS5A5Xdp3o5d3.obj
 0003:00003b90       $SG23242                   0000000180020b90     m_FpwZVT78uS5A5Xdp3o5d3.obj
 0003:00003bf0       $SG23245                   0000000180020bf0     m_FpwZVT78uS5A5Xdp3o5d3.obj
 0003:00003c40       $SG23248                   0000000180020c40     m_FpwZVT78uS5A5Xdp3o5d3.obj
 0003:00003c88       $SG23250                   0000000180020c88     m_FpwZVT78uS5A5Xdp3o5d3.obj
 0003:00003ca0       $SG23251                   0000000180020ca0     m_FpwZVT78uS5A5Xdp3o5d3.obj
 0003:00003cf8       $SG23253                   0000000180020cf8     m_FpwZVT78uS5A5Xdp3o5d3.obj
 0003:00003d10       $SG23254                   0000000180020d10     m_FpwZVT78uS5A5Xdp3o5d3.obj
 0003:00003d68       $SG23256                   0000000180020d68     m_FpwZVT78uS5A5Xdp3o5d3.obj
 0003:00003d80       $SG23257                   0000000180020d80     m_FpwZVT78uS5A5Xdp3o5d3.obj
 0003:00003dd0       $SG23260                   0000000180020dd0     m_FpwZVT78uS5A5Xdp3o5d3.obj
 0003:00003e18       $SG23262                   0000000180020e18     m_FpwZVT78uS5A5Xdp3o5d3.obj
 0003:00003e30       $SG23263                   0000000180020e30     m_FpwZVT78uS5A5Xdp3o5d3.obj
 0003:00003e90       $SG23265                   0000000180020e90     m_FpwZVT78uS5A5Xdp3o5d3.obj
 0003:00003ea0       $SG23266                   0000000180020ea0     m_FpwZVT78uS5A5Xdp3o5d3.obj
 0003:00003f00       $SG23269                   0000000180020f00     m_FpwZVT78uS5A5Xdp3o5d3.obj
 0003:00003f60       $SG23271                   0000000180020f60     m_FpwZVT78uS5A5Xdp3o5d3.obj
 0003:00003f70       $SG23272                   0000000180020f70     m_FpwZVT78uS5A5Xdp3o5d3.obj
 0003:00003fc0       $SG23274                   0000000180020fc0     m_FpwZVT78uS5A5Xdp3o5d3.obj
 0003:00003fd0       $SG23275                   0000000180020fd0     m_FpwZVT78uS5A5Xdp3o5d3.obj
 0003:00004028       $SG23277                   0000000180021028     m_FpwZVT78uS5A5Xdp3o5d3.obj
 0003:00004040       $SG23278                   0000000180021040     m_FpwZVT78uS5A5Xdp3o5d3.obj
 0003:00004098       $SG23280                   0000000180021098     m_FpwZVT78uS5A5Xdp3o5d3.obj
 0003:000040b0       $SG23281                   00000001800210b0     m_FpwZVT78uS5A5Xdp3o5d3.obj
 0003:00004110       $SG23284                   0000000180021110     m_FpwZVT78uS5A5Xdp3o5d3.obj
 0003:00004154       ?f_u@?1??AWGNChannelBase_set_EbNo@@9@9 0000000180021154     m_FpwZVT78uS5A5Xdp3o5d3.obj
 0003:00004158       emlrtRSI                   0000000180021158     m_FpwZVT78uS5A5Xdp3o5d3.obj
 0003:00004170       b_emlrtRSI                 0000000180021170     m_FpwZVT78uS5A5Xdp3o5d3.obj
 0003:00004188       c_emlrtRSI                 0000000180021188     m_FpwZVT78uS5A5Xdp3o5d3.obj
 0003:000041a0       d_emlrtRSI                 00000001800211a0     m_FpwZVT78uS5A5Xdp3o5d3.obj
 0003:000041b8       e_emlrtRSI                 00000001800211b8     m_FpwZVT78uS5A5Xdp3o5d3.obj
 0003:000041d0       f_emlrtRSI                 00000001800211d0     m_FpwZVT78uS5A5Xdp3o5d3.obj
 0003:000041e8       g_emlrtRSI                 00000001800211e8     m_FpwZVT78uS5A5Xdp3o5d3.obj
 0003:00004200       h_emlrtRSI                 0000000180021200     m_FpwZVT78uS5A5Xdp3o5d3.obj
 0003:00004218       i_emlrtRSI                 0000000180021218     m_FpwZVT78uS5A5Xdp3o5d3.obj
 0003:00004230       j_emlrtRSI                 0000000180021230     m_FpwZVT78uS5A5Xdp3o5d3.obj
 0003:00004248       k_emlrtRSI                 0000000180021248     m_FpwZVT78uS5A5Xdp3o5d3.obj
 0003:00004260       l_emlrtRSI                 0000000180021260     m_FpwZVT78uS5A5Xdp3o5d3.obj
 0003:00004278       m_emlrtRSI                 0000000180021278     m_FpwZVT78uS5A5Xdp3o5d3.obj
 0003:00004290       n_emlrtRSI                 0000000180021290     m_FpwZVT78uS5A5Xdp3o5d3.obj
 0003:000042a8       o_emlrtRSI                 00000001800212a8     m_FpwZVT78uS5A5Xdp3o5d3.obj
 0003:000042c0       p_emlrtRSI                 00000001800212c0     m_FpwZVT78uS5A5Xdp3o5d3.obj
 0003:000042d8       q_emlrtRSI                 00000001800212d8     m_FpwZVT78uS5A5Xdp3o5d3.obj
 0003:000042f0       r_emlrtRSI                 00000001800212f0     m_FpwZVT78uS5A5Xdp3o5d3.obj
 0003:00004308       s_emlrtRSI                 0000000180021308     m_FpwZVT78uS5A5Xdp3o5d3.obj
 0003:00004320       t_emlrtRSI                 0000000180021320     m_FpwZVT78uS5A5Xdp3o5d3.obj
 0003:00004338       u_emlrtRSI                 0000000180021338     m_FpwZVT78uS5A5Xdp3o5d3.obj
 0003:00004350       v_emlrtRSI                 0000000180021350     m_FpwZVT78uS5A5Xdp3o5d3.obj
 0003:00004368       w_emlrtRSI                 0000000180021368     m_FpwZVT78uS5A5Xdp3o5d3.obj
 0003:00004380       x_emlrtRSI                 0000000180021380     m_FpwZVT78uS5A5Xdp3o5d3.obj
 0003:00004398       y_emlrtRSI                 0000000180021398     m_FpwZVT78uS5A5Xdp3o5d3.obj
 0003:000043b0       ab_emlrtRSI                00000001800213b0     m_FpwZVT78uS5A5Xdp3o5d3.obj
 0003:000043c8       bb_emlrtRSI                00000001800213c8     m_FpwZVT78uS5A5Xdp3o5d3.obj
 0003:000043e0       cb_emlrtRSI                00000001800213e0     m_FpwZVT78uS5A5Xdp3o5d3.obj
 0003:000043f8       db_emlrtRSI                00000001800213f8     m_FpwZVT78uS5A5Xdp3o5d3.obj
 0003:00004410       eb_emlrtRSI                0000000180021410     m_FpwZVT78uS5A5Xdp3o5d3.obj
 0003:00004428       fb_emlrtRSI                0000000180021428     m_FpwZVT78uS5A5Xdp3o5d3.obj
 0003:00004440       gb_emlrtRSI                0000000180021440     m_FpwZVT78uS5A5Xdp3o5d3.obj
 0003:00004458       hb_emlrtRSI                0000000180021458     m_FpwZVT78uS5A5Xdp3o5d3.obj
 0003:00004470       ib_emlrtRSI                0000000180021470     m_FpwZVT78uS5A5Xdp3o5d3.obj
 0003:00004488       jb_emlrtRSI                0000000180021488     m_FpwZVT78uS5A5Xdp3o5d3.obj
 0003:000044a0       kb_emlrtRSI                00000001800214a0     m_FpwZVT78uS5A5Xdp3o5d3.obj
 0003:000044b8       lb_emlrtRSI                00000001800214b8     m_FpwZVT78uS5A5Xdp3o5d3.obj
 0003:000044d0       mb_emlrtRSI                00000001800214d0     m_FpwZVT78uS5A5Xdp3o5d3.obj
 0003:000044e8       nb_emlrtRSI                00000001800214e8     m_FpwZVT78uS5A5Xdp3o5d3.obj
 0003:00004500       ob_emlrtRSI                0000000180021500     m_FpwZVT78uS5A5Xdp3o5d3.obj
 0003:00004518       pb_emlrtRSI                0000000180021518     m_FpwZVT78uS5A5Xdp3o5d3.obj
 0003:00004530       qb_emlrtRSI                0000000180021530     m_FpwZVT78uS5A5Xdp3o5d3.obj
 0003:00004548       rb_emlrtRSI                0000000180021548     m_FpwZVT78uS5A5Xdp3o5d3.obj
 0003:00004560       sb_emlrtRSI                0000000180021560     m_FpwZVT78uS5A5Xdp3o5d3.obj
 0003:00004578       tb_emlrtRSI                0000000180021578     m_FpwZVT78uS5A5Xdp3o5d3.obj
 0003:00004590       ub_emlrtRSI                0000000180021590     m_FpwZVT78uS5A5Xdp3o5d3.obj
 0003:000045a8       vb_emlrtRSI                00000001800215a8     m_FpwZVT78uS5A5Xdp3o5d3.obj
 0003:000045c0       wb_emlrtRSI                00000001800215c0     m_FpwZVT78uS5A5Xdp3o5d3.obj
 0003:000045d8       xb_emlrtRSI                00000001800215d8     m_FpwZVT78uS5A5Xdp3o5d3.obj
 0003:000045f0       yb_emlrtRSI                00000001800215f0     m_FpwZVT78uS5A5Xdp3o5d3.obj
 0003:00004608       ac_emlrtRSI                0000000180021608     m_FpwZVT78uS5A5Xdp3o5d3.obj
 0003:00004620       bc_emlrtRSI                0000000180021620     m_FpwZVT78uS5A5Xdp3o5d3.obj
 0003:00004638       cc_emlrtRSI                0000000180021638     m_FpwZVT78uS5A5Xdp3o5d3.obj
 0003:00004650       dc_emlrtRSI                0000000180021650     m_FpwZVT78uS5A5Xdp3o5d3.obj
 0003:00004668       ec_emlrtRSI                0000000180021668     m_FpwZVT78uS5A5Xdp3o5d3.obj
 0003:00004680       fc_emlrtRSI                0000000180021680     m_FpwZVT78uS5A5Xdp3o5d3.obj
 0003:00004698       gc_emlrtRSI                0000000180021698     m_FpwZVT78uS5A5Xdp3o5d3.obj
 0003:000046b0       hc_emlrtRSI                00000001800216b0     m_FpwZVT78uS5A5Xdp3o5d3.obj
 0003:000046c8       ic_emlrtRSI                00000001800216c8     m_FpwZVT78uS5A5Xdp3o5d3.obj
 0003:000046e0       jc_emlrtRSI                00000001800216e0     m_FpwZVT78uS5A5Xdp3o5d3.obj
 0003:000046f8       kc_emlrtRSI                00000001800216f8     m_FpwZVT78uS5A5Xdp3o5d3.obj
 0003:00004710       lc_emlrtRSI                0000000180021710     m_FpwZVT78uS5A5Xdp3o5d3.obj
 0003:00004728       mc_emlrtRSI                0000000180021728     m_FpwZVT78uS5A5Xdp3o5d3.obj
 0003:00004740       nc_emlrtRSI                0000000180021740     m_FpwZVT78uS5A5Xdp3o5d3.obj
 0003:00004758       oc_emlrtRSI                0000000180021758     m_FpwZVT78uS5A5Xdp3o5d3.obj
 0003:00004770       pc_emlrtRSI                0000000180021770     m_FpwZVT78uS5A5Xdp3o5d3.obj
 0003:00004788       qc_emlrtRSI                0000000180021788     m_FpwZVT78uS5A5Xdp3o5d3.obj
 0003:000047a0       rc_emlrtRSI                00000001800217a0     m_FpwZVT78uS5A5Xdp3o5d3.obj
 0003:000047b8       sc_emlrtRSI                00000001800217b8     m_FpwZVT78uS5A5Xdp3o5d3.obj
 0003:000047d0       emlrtMCI                   00000001800217d0     m_FpwZVT78uS5A5Xdp3o5d3.obj
 0003:000047e8       b_emlrtMCI                 00000001800217e8     m_FpwZVT78uS5A5Xdp3o5d3.obj
 0003:00004800       c_emlrtMCI                 0000000180021800     m_FpwZVT78uS5A5Xdp3o5d3.obj
 0003:00004818       d_emlrtMCI                 0000000180021818     m_FpwZVT78uS5A5Xdp3o5d3.obj
 0003:00004830       e_emlrtMCI                 0000000180021830     m_FpwZVT78uS5A5Xdp3o5d3.obj
 0003:00004848       f_emlrtMCI                 0000000180021848     m_FpwZVT78uS5A5Xdp3o5d3.obj
 0003:00004860       h_emlrtMCI                 0000000180021860     m_FpwZVT78uS5A5Xdp3o5d3.obj
 0003:00004878       i_emlrtMCI                 0000000180021878     m_FpwZVT78uS5A5Xdp3o5d3.obj
 0003:00004890       j_emlrtMCI                 0000000180021890     m_FpwZVT78uS5A5Xdp3o5d3.obj
 0003:000048a8       k_emlrtMCI                 00000001800218a8     m_FpwZVT78uS5A5Xdp3o5d3.obj
 0003:000048c0       tc_emlrtRSI                00000001800218c0     m_FpwZVT78uS5A5Xdp3o5d3.obj
 0003:000048d8       uc_emlrtRSI                00000001800218d8     m_FpwZVT78uS5A5Xdp3o5d3.obj
 0003:000048f0       vc_emlrtRSI                00000001800218f0     m_FpwZVT78uS5A5Xdp3o5d3.obj
 0003:00004908       wc_emlrtRSI                0000000180021908     m_FpwZVT78uS5A5Xdp3o5d3.obj
 0003:00004920       xc_emlrtRSI                0000000180021920     m_FpwZVT78uS5A5Xdp3o5d3.obj
 0003:00004938       yc_emlrtRSI                0000000180021938     m_FpwZVT78uS5A5Xdp3o5d3.obj
 0003:00004950       ad_emlrtRSI                0000000180021950     m_FpwZVT78uS5A5Xdp3o5d3.obj
 0003:00004968       bd_emlrtRSI                0000000180021968     m_FpwZVT78uS5A5Xdp3o5d3.obj
 0003:00004980       cd_emlrtRSI                0000000180021980     m_FpwZVT78uS5A5Xdp3o5d3.obj
 0003:00004998       $SG23510                   0000000180021998     m_FpwZVT78uS5A5Xdp3o5d3.obj
 0003:000049b0       $SG23511                   00000001800219b0     m_FpwZVT78uS5A5Xdp3o5d3.obj
 0003:000049d8       ?b_u@?1??AWGNChannelBase_set_EbNo@@9@9 00000001800219d8     m_FpwZVT78uS5A5Xdp3o5d3.obj
 0003:000049f0       ?uv@?1??mw__internal__system__init__fcn@@9@9 00000001800219f0     m_FpwZVT78uS5A5Xdp3o5d3.obj
 0003:000053b4       ?d_u@?1??AWGNChannelBase_getStandardDeviation@@9@9 00000001800223b4     m_FpwZVT78uS5A5Xdp3o5d3.obj
 0003:000053b8       ?d_u@?1??AWGNChannelBase_set_EbNo@@9@9 00000001800223b8     m_FpwZVT78uS5A5Xdp3o5d3.obj
 0003:000053e8       ?f_u@?1??AWGNChannelBase_set_SignalPower@@9@9 00000001800223e8     m_FpwZVT78uS5A5Xdp3o5d3.obj
 0003:00005418       ?j_u@?1??AWGNChannelBase_set_SignalPower@@9@9 0000000180022418     m_FpwZVT78uS5A5Xdp3o5d3.obj
 0003:00005448       ?l_u@?1??AWGNChannelBase_set_SignalPower@@9@9 0000000180022448     m_FpwZVT78uS5A5Xdp3o5d3.obj
 0003:00005478       ?b_u@?1??AWGNChannelBase_set_SignalPower@@9@9 0000000180022478     m_FpwZVT78uS5A5Xdp3o5d3.obj
 0003:00005490       ?e_u@?1??AWGNChannelBase_set_SignalPower@@9@9 0000000180022490     m_FpwZVT78uS5A5Xdp3o5d3.obj
 0003:000054a8       ?i_u@?1??AWGNChannelBase_set_SignalPower@@9@9 00000001800224a8     m_FpwZVT78uS5A5Xdp3o5d3.obj
 0003:000054c0       ?k_u@?1??AWGNChannelBase_set_SignalPower@@9@9 00000001800224c0     m_FpwZVT78uS5A5Xdp3o5d3.obj
 0003:000054cc       ?d_u@?1??mw__internal__call__step@@9@9 00000001800224cc     m_FpwZVT78uS5A5Xdp3o5d3.obj
 0003:000054d0       ?iv1@?1??SystemCore_setup@@9@9 00000001800224d0     m_FpwZVT78uS5A5Xdp3o5d3.obj
 0003:000054e0       ?b_u@?1??SystemCore_setup@@9@9 00000001800224e0     m_FpwZVT78uS5A5Xdp3o5d3.obj
 0003:00005518       ?h_u@?1??SystemCore_setup@@9@9 0000000180022518     m_FpwZVT78uS5A5Xdp3o5d3.obj
 0003:00005550       ?f_u@?1??SystemCore_setup@@9@9 0000000180022550     m_FpwZVT78uS5A5Xdp3o5d3.obj
 0003:00005568       ?d_u@?1??SystemCore_setup@@9@9 0000000180022568     m_FpwZVT78uS5A5Xdp3o5d3.obj
 0003:00005570       ?b_u@?1??AWGNChannelBase_getStandardDeviation@@9@9 0000000180022570     m_FpwZVT78uS5A5Xdp3o5d3.obj
 0003:00005590       ?b_u@?1??SystemCore_checkTunablePropChange@@9@9 0000000180022590     m_FpwZVT78uS5A5Xdp3o5d3.obj
 0003:000055c0       ?b_u@?1??mw__internal__call__reset@@9@9 00000001800225c0     m_FpwZVT78uS5A5Xdp3o5d3.obj
 0003:000055f0       ?d_u@?1??mw__internal__call__reset@@9@9 00000001800225f0     m_FpwZVT78uS5A5Xdp3o5d3.obj
 0003:0000561c       ?f_u@?1??mw__internal__call__reset@@9@9 000000018002261c     m_FpwZVT78uS5A5Xdp3o5d3.obj
 0003:00005628       ?inSize@?1??mw__internal__call__step@@9@9 0000000180022628     m_FpwZVT78uS5A5Xdp3o5d3.obj
 0003:00005638       ?b_u@?1??mw__internal__call__step@@9@9 0000000180022638     m_FpwZVT78uS5A5Xdp3o5d3.obj
 0003:00005668       ?d_u@?1??AWGNChannelBase_stepImpl@@9@9 0000000180022668     m_FpwZVT78uS5A5Xdp3o5d3.obj
 0003:000056a0       ?c_u@?1??AWGNChannelBase_stepImpl@@9@9 00000001800226a0     m_FpwZVT78uS5A5Xdp3o5d3.obj
 0003:000056d8       ?c_u@?1??mt19937ar_genrandu@@9@9 00000001800226d8     m_FpwZVT78uS5A5Xdp3o5d3.obj
 0003:00005700       ?dv@?1??mt19937ar_mtziggurat@@9@9 0000000180022700     m_FpwZVT78uS5A5Xdp3o5d3.obj
 0003:00005f08       ?c_u@?1??b_mt19937ar_genrandu@@9@9 0000000180022f08     m_FpwZVT78uS5A5Xdp3o5d3.obj
 0003:00005f30       ?dv1@?1??mt19937ar_mtziggurat@@9@9 0000000180022f30     m_FpwZVT78uS5A5Xdp3o5d3.obj
 0003:00006738       $SG24522                   0000000180023738     m_FpwZVT78uS5A5Xdp3o5d3.obj
 0003:00006740       ?dv@?1??RandStream_zigguratGenrandn@@9@9 0000000180023740     m_FpwZVT78uS5A5Xdp3o5d3.obj
 0003:00006f48       $SG24546                   0000000180023f48     m_FpwZVT78uS5A5Xdp3o5d3.obj
 0003:00006f50       ?dv1@?1??RandStream_zigguratGenrandn@@9@9 0000000180023f50     m_FpwZVT78uS5A5Xdp3o5d3.obj
 0003:00007758       $SG24533                   0000000180024758     m_FpwZVT78uS5A5Xdp3o5d3.obj
 0003:00007768       $SG24557                   0000000180024768     m_FpwZVT78uS5A5Xdp3o5d3.obj
 0003:00007770       $SG24657                   0000000180024770     m_FpwZVT78uS5A5Xdp3o5d3.obj
 0003:00007780       $SG24658                   0000000180024780     m_FpwZVT78uS5A5Xdp3o5d3.obj
 0003:00007790       $SG24669                   0000000180024790     m_FpwZVT78uS5A5Xdp3o5d3.obj
 0003:000077a0       $SG24671                   00000001800247a0     m_FpwZVT78uS5A5Xdp3o5d3.obj
 0003:000077b8       $SG24672                   00000001800247b8     m_FpwZVT78uS5A5Xdp3o5d3.obj
 0003:000077d0       $SG24673                   00000001800247d0     m_FpwZVT78uS5A5Xdp3o5d3.obj
 0003:000077e8       $SG21448                   00000001800247e8     commqpsktxrx_cgxe_registry.obj
 0003:00007818       $SG21453                   0000000180024818     commqpsktxrx_cgxe_registry.obj
 0003:00007858       $SG21460                   0000000180024858     commqpsktxrx_cgxe_registry.obj
 0003:0000788c       $SG21518                   000000018002488c     commqpsktxrx_cgxe_registry.obj
 0003:00007894       $SG21522                   0000000180024894     commqpsktxrx_cgxe_registry.obj
 0003:0000789c       $SG23395                   000000018002489c     commqpsktxrx_cgxe_registry.obj
 0003:000078a0       $SG21467                   00000001800248a0     commqpsktxrx_cgxe_registry.obj
 0003:000078d4       $SG21528                   00000001800248d4     commqpsktxrx_cgxe_registry.obj
 0003:000078dc       $SG23476                   00000001800248dc     commqpsktxrx_cgxe_registry.obj
 0003:000078e0       $SG21472                   00000001800248e0     commqpsktxrx_cgxe_registry.obj
 0003:00007918       $SG21516                   0000000180024918     commqpsktxrx_cgxe_registry.obj
 0003:00007920       $SG21520                   0000000180024920     commqpsktxrx_cgxe_registry.obj
 0003:00007930       $SG21524                   0000000180024930     commqpsktxrx_cgxe_registry.obj
 0003:00007938       $SG21525                   0000000180024938     commqpsktxrx_cgxe_registry.obj
 0003:00007940       $SG21526                   0000000180024940     commqpsktxrx_cgxe_registry.obj
 0003:00007948       $SG21527                   0000000180024948     commqpsktxrx_cgxe_registry.obj
 0003:00007958       $SG21529                   0000000180024958     commqpsktxrx_cgxe_registry.obj
 0003:00007960       $SG21574                   0000000180024960     commqpsktxrx_cgxe_registry.obj
 0003:00007990       $SG21589                   0000000180024990     commqpsktxrx_cgxe_registry.obj
 0003:000079c0       $SG21609                   00000001800249c0     commqpsktxrx_cgxe_registry.obj
 0003:000079d8       $SG21611                   00000001800249d8     commqpsktxrx_cgxe_registry.obj
 0003:000079f0       $SG21631                   00000001800249f0     commqpsktxrx_cgxe_registry.obj
 0003:00007a08       $SG21633                   0000000180024a08     commqpsktxrx_cgxe_registry.obj
 0003:00007a20       $SG21651                   0000000180024a20     commqpsktxrx_cgxe_registry.obj
 0003:00007a30       $SG21653                   0000000180024a30     commqpsktxrx_cgxe_registry.obj
 0003:00007a40       $SG21655                   0000000180024a40     commqpsktxrx_cgxe_registry.obj
 0003:00007a50       $SG21657                   0000000180024a50     commqpsktxrx_cgxe_registry.obj
 0003:00007a60       $SG21659                   0000000180024a60     commqpsktxrx_cgxe_registry.obj
 0003:00007a78       $SG21661                   0000000180024a78     commqpsktxrx_cgxe_registry.obj
 0003:00007a90       $SG21675                   0000000180024a90     commqpsktxrx_cgxe_registry.obj
 0003:00007ab8       _sfcnName                  0000000180024ab8     commqpsktxrx_cgxe_registry.obj
 0003:00007ae8       $SG22101                   0000000180024ae8     commqpsktxrx_cgxe_registry.obj
 0003:00007b00       $SG21692                   0000000180024b00     commqpsktxrx_cgxe_registry.obj
 0003:00007b78       $SG22102                   0000000180024b78     commqpsktxrx_cgxe_registry.obj
 0003:00007b90       $SG21697                   0000000180024b90     commqpsktxrx_cgxe_registry.obj
 0003:00007c08       $SG22116                   0000000180024c08     commqpsktxrx_cgxe_registry.obj
 0003:00007c18       $SG22306                   0000000180024c18     commqpsktxrx_cgxe_registry.obj
 0003:00007c58       $SG22307                   0000000180024c58     commqpsktxrx_cgxe_registry.obj
 0003:00007c68       $SG22308                   0000000180024c68     commqpsktxrx_cgxe_registry.obj
 0003:00007c70       $SG22312                   0000000180024c70     commqpsktxrx_cgxe_registry.obj
 0003:00007cb8       $SG22313                   0000000180024cb8     commqpsktxrx_cgxe_registry.obj
 0003:00007cc8       $SG22314                   0000000180024cc8     commqpsktxrx_cgxe_registry.obj
 0003:00007cd0       $SG22315                   0000000180024cd0     commqpsktxrx_cgxe_registry.obj
 0003:00007d28       $SG22316                   0000000180024d28     commqpsktxrx_cgxe_registry.obj
 0003:00007d38       $SG22317                   0000000180024d38     commqpsktxrx_cgxe_registry.obj
 0003:00007d40       $SG22339                   0000000180024d40     commqpsktxrx_cgxe_registry.obj
 0003:00007d80       $SG22340                   0000000180024d80     commqpsktxrx_cgxe_registry.obj
 0003:00007d90       $SG22341                   0000000180024d90     commqpsktxrx_cgxe_registry.obj
 0003:00007d98       $SG22347                   0000000180024d98     commqpsktxrx_cgxe_registry.obj
 0003:00007da0       $SG22345                   0000000180024da0     commqpsktxrx_cgxe_registry.obj
 0003:00007de8       $SG22346                   0000000180024de8     commqpsktxrx_cgxe_registry.obj
 0003:00007df8       $SG22350                   0000000180024df8     commqpsktxrx_cgxe_registry.obj
 0003:00007e00       $SG22348                   0000000180024e00     commqpsktxrx_cgxe_registry.obj
 0003:00007e58       $SG22349                   0000000180024e58     commqpsktxrx_cgxe_registry.obj
 0003:00007e68       $SG22376                   0000000180024e68     commqpsktxrx_cgxe_registry.obj
 0003:00007e70       $SG22374                   0000000180024e70     commqpsktxrx_cgxe_registry.obj
 0003:00007ec0       $SG22375                   0000000180024ec0     commqpsktxrx_cgxe_registry.obj
 0003:00007ed0       $SG22388                   0000000180024ed0     commqpsktxrx_cgxe_registry.obj
 0003:00007f30       $SG22389                   0000000180024f30     commqpsktxrx_cgxe_registry.obj
 0003:00007f38       $SG22390                   0000000180024f38     commqpsktxrx_cgxe_registry.obj
 0003:00007f40       $SG22402                   0000000180024f40     commqpsktxrx_cgxe_registry.obj
 0003:00007fa0       $SG22403                   0000000180024fa0     commqpsktxrx_cgxe_registry.obj
 0003:00007fa8       $SG22404                   0000000180024fa8     commqpsktxrx_cgxe_registry.obj
 0003:00007fb0       $SG22757                   0000000180024fb0     commqpsktxrx_cgxe_registry.obj
 0003:00008028       $SG23379                   0000000180025028     commqpsktxrx_cgxe_registry.obj
 0003:00008040       $SG22760                   0000000180025040     commqpsktxrx_cgxe_registry.obj
 0003:000080b4       $SG23450                   00000001800250b4     commqpsktxrx_cgxe_registry.obj
 0003:000080c0       $SG22765                   00000001800250c0     commqpsktxrx_cgxe_registry.obj
 0003:00008138       $SG23451                   0000000180025138     commqpsktxrx_cgxe_registry.obj
 0003:00008140       $SG22773                   0000000180025140     commqpsktxrx_cgxe_registry.obj
 0003:000081b0       $SG23048                   00000001800251b0     commqpsktxrx_cgxe_registry.obj
 0003:00008228       $SG23452                   0000000180025228     commqpsktxrx_cgxe_registry.obj
 0003:00008230       $SG23053                   0000000180025230     commqpsktxrx_cgxe_registry.obj
 0003:000082a8       $SG23458                   00000001800252a8     commqpsktxrx_cgxe_registry.obj
 0003:000082b0       $SG23392                   00000001800252b0     commqpsktxrx_cgxe_registry.obj
 0003:00008328       $SG23461                   0000000180025328     commqpsktxrx_cgxe_registry.obj
 0003:00008330       $SG23453                   0000000180025330     commqpsktxrx_cgxe_registry.obj
 0003:000083a8       $SG23464                   00000001800253a8     commqpsktxrx_cgxe_registry.obj
 0003:000083b0       $SG23455                   00000001800253b0     commqpsktxrx_cgxe_registry.obj
 0003:00008430       $SG23465                   0000000180025430     commqpsktxrx_cgxe_registry.obj
 0003:000084b0       $SG23466                   00000001800254b0     commqpsktxrx_cgxe_registry.obj
 0003:000084c0       $SG23468                   00000001800254c0     commqpsktxrx_cgxe_registry.obj
 0003:000084cc       $SG23470                   00000001800254cc     commqpsktxrx_cgxe_registry.obj
 0003:000084d4       $SG23472                   00000001800254d4     commqpsktxrx_cgxe_registry.obj
 0003:000084e0       $SG23474                   00000001800254e0     commqpsktxrx_cgxe_registry.obj
 0003:000084f0       $SG23479                   00000001800254f0     commqpsktxrx_cgxe_registry.obj
 0003:000085d8       $SG23597                   00000001800255d8     commqpsktxrx_cgxe_registry.obj
 0003:00008608       $SG23598                   0000000180025608     commqpsktxrx_cgxe_registry.obj
 0003:00008618       $SG23599                   0000000180025618     commqpsktxrx_cgxe_registry.obj
 0003:00008620       $SG23601                   0000000180025620     commqpsktxrx_cgxe_registry.obj
 0003:00008658       $SG23602                   0000000180025658     commqpsktxrx_cgxe_registry.obj
 0003:00008668       $SG23603                   0000000180025668     commqpsktxrx_cgxe_registry.obj
 0003:00008670       $SG23606                   0000000180025670     commqpsktxrx_cgxe_registry.obj
 0003:000086a8       $SG23607                   00000001800256a8     commqpsktxrx_cgxe_registry.obj
 0003:000086b8       $SG23608                   00000001800256b8     commqpsktxrx_cgxe_registry.obj
 0003:000086c0       $SG23610                   00000001800256c0     commqpsktxrx_cgxe_registry.obj
 0003:000086f8       $SG23611                   00000001800256f8     commqpsktxrx_cgxe_registry.obj
 0003:00008708       $SG23612                   0000000180025708     commqpsktxrx_cgxe_registry.obj
 0003:00008710       $SG23614                   0000000180025710     commqpsktxrx_cgxe_registry.obj
 0003:00008748       $SG23615                   0000000180025748     commqpsktxrx_cgxe_registry.obj
 0003:00008758       $SG23616                   0000000180025758     commqpsktxrx_cgxe_registry.obj
 0003:00008760       $SG23619                   0000000180025760     commqpsktxrx_cgxe_registry.obj
 0003:00008778       $SG23621                   0000000180025778     commqpsktxrx_cgxe_registry.obj
 0003:00008790       $SG23622                   0000000180025790     commqpsktxrx_cgxe_registry.obj
 0003:000087c8       $SG23623                   00000001800257c8     commqpsktxrx_cgxe_registry.obj
 0003:000087d8       $SG23624                   00000001800257d8     commqpsktxrx_cgxe_registry.obj
 0003:000087e0       $SG23759                   00000001800257e0     commqpsktxrx_cgxe_registry.obj
 0003:00008800       $SG23760                   0000000180025800     commqpsktxrx_cgxe_registry.obj
 0003:00008890       $SG23766                   0000000180025890     commqpsktxrx_cgxe_registry.obj
 0003:000088a8       $SG23773                   00000001800258a8     commqpsktxrx_cgxe_registry.obj
 0003:000088c0       $SG23767                   00000001800258c0     commqpsktxrx_cgxe_registry.obj
 0003:00008950       $SG23774                   0000000180025950     commqpsktxrx_cgxe_registry.obj
 0003:000089e0       $SG23780                   00000001800259e0     commqpsktxrx_cgxe_registry.obj
 0003:00008a00       $SG23781                   0000000180025a00     commqpsktxrx_cgxe_registry.obj
 0003:00008a90       $SG23787                   0000000180025a90     commqpsktxrx_cgxe_registry.obj
 0003:00008ab0       $SG23788                   0000000180025ab0     commqpsktxrx_cgxe_registry.obj
 0003:00008b40       $SG23792                   0000000180025b40     commqpsktxrx_cgxe_registry.obj
 0003:00008b60       $SG23793                   0000000180025b60     commqpsktxrx_cgxe_registry.obj
 0003:00008bf0       $SG23797                   0000000180025bf0     commqpsktxrx_cgxe_registry.obj
 0003:00008c18       $SG23802                   0000000180025c18     commqpsktxrx_cgxe_registry.obj
 0003:00008c40       $SG23798                   0000000180025c40     commqpsktxrx_cgxe_registry.obj
 0003:00008cd0       $SG23803                   0000000180025cd0     commqpsktxrx_cgxe_registry.obj
 0003:00008d60       $SG23807                   0000000180025d60     commqpsktxrx_cgxe_registry.obj
 0003:00008d80       $SG23808                   0000000180025d80     commqpsktxrx_cgxe_registry.obj
 0003:00008e10       $SG23812                   0000000180025e10     commqpsktxrx_cgxe_registry.obj
 0003:00008e30       $SG23813                   0000000180025e30     commqpsktxrx_cgxe_registry.obj
 0003:00008ec0       $SG23817                   0000000180025ec0     commqpsktxrx_cgxe_registry.obj
 0003:00008ed8       $SG23853                   0000000180025ed8     commqpsktxrx_cgxe_registry.obj
 0003:00008ef0       $SG23818                   0000000180025ef0     commqpsktxrx_cgxe_registry.obj
 0003:00008f80       $SG23822                   0000000180025f80     commqpsktxrx_cgxe_registry.obj
 0003:00008fa0       $SG23823                   0000000180025fa0     commqpsktxrx_cgxe_registry.obj
 0003:00009030       $SG23827                   0000000180026030     commqpsktxrx_cgxe_registry.obj
 0003:00009050       $SG23828                   0000000180026050     commqpsktxrx_cgxe_registry.obj
 0003:000090e0       $SG23832                   00000001800260e0     commqpsktxrx_cgxe_registry.obj
 0003:00009100       $SG23833                   0000000180026100     commqpsktxrx_cgxe_registry.obj
 0003:00009190       $SG23837                   0000000180026190     commqpsktxrx_cgxe_registry.obj
 0003:000091b0       $SG23838                   00000001800261b0     commqpsktxrx_cgxe_registry.obj
 0003:00009240       $SG23842                   0000000180026240     commqpsktxrx_cgxe_registry.obj
 0003:00009260       $SG23843                   0000000180026260     commqpsktxrx_cgxe_registry.obj
 0003:000092f0       $SG23847                   00000001800262f0     commqpsktxrx_cgxe_registry.obj
 0003:00009310       $SG23848                   0000000180026310     commqpsktxrx_cgxe_registry.obj
 0003:000093a0       $SG23854                   00000001800263a0     commqpsktxrx_cgxe_registry.obj
 0003:00009430       $SG23859                   0000000180026430     commqpsktxrx_cgxe_registry.obj
 0003:00009448       $SG23869                   0000000180026448     commqpsktxrx_cgxe_registry.obj
 0003:00009460       $SG23860                   0000000180026460     commqpsktxrx_cgxe_registry.obj
 0003:000094f0       $SG23864                   00000001800264f0     commqpsktxrx_cgxe_registry.obj
 0003:00009500       $SG23865                   0000000180026500     commqpsktxrx_cgxe_registry.obj
 0003:00009590       $SG23870                   0000000180026590     commqpsktxrx_cgxe_registry.obj
 0003:00009620       $SG23878                   0000000180026620     commqpsktxrx_cgxe_registry.obj
 0003:00009630       $SG23879                   0000000180026630     commqpsktxrx_cgxe_registry.obj
 0003:000096c0       $SG23883                   00000001800266c0     commqpsktxrx_cgxe_registry.obj
 0003:00009740       $SG23885                   0000000180026740     commqpsktxrx_cgxe_registry.obj
 0003:000097b8       $SG23932                   00000001800267b8     commqpsktxrx_cgxe_registry.obj
 0003:000097c8       $SG24013                   00000001800267c8     commqpsktxrx_cgxe_registry.obj
 0003:000097d0       $SG23889                   00000001800267d0     commqpsktxrx_cgxe_registry.obj
 0003:00009848       $SG23943                   0000000180026848     commqpsktxrx_cgxe_registry.obj
 0003:00009858       $SG24014                   0000000180026858     commqpsktxrx_cgxe_registry.obj
 0003:00009860       $SG23919                   0000000180026860     commqpsktxrx_cgxe_registry.obj
 0003:00009978       $SG23956                   0000000180026978     commqpsktxrx_cgxe_registry.obj
 0003:00009988       $SG23967                   0000000180026988     commqpsktxrx_cgxe_registry.obj
 0003:00009998       $SG23980                   0000000180026998     commqpsktxrx_cgxe_registry.obj
 0003:000099a8       $SG23991                   00000001800269a8     commqpsktxrx_cgxe_registry.obj
 0003:000099b8       $SG24001                   00000001800269b8     commqpsktxrx_cgxe_registry.obj
 0003:000099d8       $SG24012                   00000001800269d8     commqpsktxrx_cgxe_registry.obj
 0003:00009a08       $SG24025                   0000000180026a08     commqpsktxrx_cgxe_registry.obj
 0003:00009a40       $SG24026                   0000000180026a40     commqpsktxrx_cgxe_registry.obj
 0003:00009a48       $SG24027                   0000000180026a48     commqpsktxrx_cgxe_registry.obj
 0003:00009a90       $SG22981                   0000000180026a90     m_BTWFqGYD8aagFTEBQPdwsF.obj
 0003:00009a91       $SG22982                   0000000180026a91     m_BTWFqGYD8aagFTEBQPdwsF.obj
 0003:00009a92       $SG22984                   0000000180026a92     m_BTWFqGYD8aagFTEBQPdwsF.obj
 0003:00009a93       $SG22985                   0000000180026a93     m_BTWFqGYD8aagFTEBQPdwsF.obj
 0003:00009a94       $SG22987                   0000000180026a94     m_BTWFqGYD8aagFTEBQPdwsF.obj
 0003:00009a95       $SG22988                   0000000180026a95     m_BTWFqGYD8aagFTEBQPdwsF.obj
 0003:00009a96       $SG22990                   0000000180026a96     m_BTWFqGYD8aagFTEBQPdwsF.obj
 0003:00009a97       $SG22991                   0000000180026a97     m_BTWFqGYD8aagFTEBQPdwsF.obj
 0003:00009a98       $SG22993                   0000000180026a98     m_BTWFqGYD8aagFTEBQPdwsF.obj
 0003:00009a99       $SG22994                   0000000180026a99     m_BTWFqGYD8aagFTEBQPdwsF.obj
 0003:00009a9a       $SG22996                   0000000180026a9a     m_BTWFqGYD8aagFTEBQPdwsF.obj
 0003:00009a9b       $SG22997                   0000000180026a9b     m_BTWFqGYD8aagFTEBQPdwsF.obj
 0003:00009a9c       $SG23014                   0000000180026a9c     m_BTWFqGYD8aagFTEBQPdwsF.obj
 0003:00009a9d       $SG23015                   0000000180026a9d     m_BTWFqGYD8aagFTEBQPdwsF.obj
 0003:00009a9e       $SG23017                   0000000180026a9e     m_BTWFqGYD8aagFTEBQPdwsF.obj
 0003:00009a9f       $SG23018                   0000000180026a9f     m_BTWFqGYD8aagFTEBQPdwsF.obj
 0003:00009aa0       $SG23020                   0000000180026aa0     m_BTWFqGYD8aagFTEBQPdwsF.obj
 0003:00009aa1       $SG23021                   0000000180026aa1     m_BTWFqGYD8aagFTEBQPdwsF.obj
 0003:00009aa2       $SG23023                   0000000180026aa2     m_BTWFqGYD8aagFTEBQPdwsF.obj
 0003:00009aa3       $SG23024                   0000000180026aa3     m_BTWFqGYD8aagFTEBQPdwsF.obj
 0003:00009aa4       $SG23026                   0000000180026aa4     m_BTWFqGYD8aagFTEBQPdwsF.obj
 0003:00009aa5       $SG23027                   0000000180026aa5     m_BTWFqGYD8aagFTEBQPdwsF.obj
 0003:00009aa6       $SG23071                   0000000180026aa6     m_BTWFqGYD8aagFTEBQPdwsF.obj
 0003:00009aa7       $SG23072                   0000000180026aa7     m_BTWFqGYD8aagFTEBQPdwsF.obj
 0003:00009aa8       $SG23074                   0000000180026aa8     m_BTWFqGYD8aagFTEBQPdwsF.obj
 0003:00009aa9       $SG23078                   0000000180026aa9     m_BTWFqGYD8aagFTEBQPdwsF.obj
 0003:00009aaa       $SG23082                   0000000180026aaa     m_BTWFqGYD8aagFTEBQPdwsF.obj
 0003:00009aab       $SG23086                   0000000180026aab     m_BTWFqGYD8aagFTEBQPdwsF.obj
 0003:00009aac       $SG23087                   0000000180026aac     m_BTWFqGYD8aagFTEBQPdwsF.obj
 0003:00009aad       $SG25056                   0000000180026aad     m_BTWFqGYD8aagFTEBQPdwsF.obj
 0003:00009aae       $SG25057                   0000000180026aae     m_BTWFqGYD8aagFTEBQPdwsF.obj
 0003:00009aaf       $SG25058                   0000000180026aaf     m_BTWFqGYD8aagFTEBQPdwsF.obj
 0003:00009ab0       $SG25059                   0000000180026ab0     m_BTWFqGYD8aagFTEBQPdwsF.obj
 0003:00009ab1       $SG25060                   0000000180026ab1     m_BTWFqGYD8aagFTEBQPdwsF.obj
 0003:00009ab2       $SG25061                   0000000180026ab2     m_BTWFqGYD8aagFTEBQPdwsF.obj
 0003:00009ab3       $SG23037                   0000000180026ab3     m_FpwZVT78uS5A5Xdp3o5d3.obj
 0003:00009ab4       $SG23038                   0000000180026ab4     m_FpwZVT78uS5A5Xdp3o5d3.obj
 0003:00009ab5       $SG23040                   0000000180026ab5     m_FpwZVT78uS5A5Xdp3o5d3.obj
 0003:00009ab6       $SG23041                   0000000180026ab6     m_FpwZVT78uS5A5Xdp3o5d3.obj
 0003:00009ab7       $SG23043                   0000000180026ab7     m_FpwZVT78uS5A5Xdp3o5d3.obj
 0003:00009ab8       $SG23044                   0000000180026ab8     m_FpwZVT78uS5A5Xdp3o5d3.obj
 0003:00009ab9       $SG23046                   0000000180026ab9     m_FpwZVT78uS5A5Xdp3o5d3.obj
 0003:00009aba       $SG23047                   0000000180026aba     m_FpwZVT78uS5A5Xdp3o5d3.obj
 0003:00009abb       $SG23124                   0000000180026abb     m_FpwZVT78uS5A5Xdp3o5d3.obj
 0003:00009abc       $SG23125                   0000000180026abc     m_FpwZVT78uS5A5Xdp3o5d3.obj
 0003:00009abd       $SG23127                   0000000180026abd     m_FpwZVT78uS5A5Xdp3o5d3.obj
 0003:00009abe       $SG23128                   0000000180026abe     m_FpwZVT78uS5A5Xdp3o5d3.obj
 0003:00009abf       $SG23130                   0000000180026abf     m_FpwZVT78uS5A5Xdp3o5d3.obj
 0003:00009ac0       $SG23131                   0000000180026ac0     m_FpwZVT78uS5A5Xdp3o5d3.obj
 0003:00009ac1       $SG23133                   0000000180026ac1     m_FpwZVT78uS5A5Xdp3o5d3.obj
 0003:00009ac2       $SG23134                   0000000180026ac2     m_FpwZVT78uS5A5Xdp3o5d3.obj
 0003:00009ac3       $SG24659                   0000000180026ac3     m_FpwZVT78uS5A5Xdp3o5d3.obj
 0003:00009ac4       $SG24660                   0000000180026ac4     m_FpwZVT78uS5A5Xdp3o5d3.obj
 0003:00009ac8       $SG23446                   0000000180026ac8     commqpsktxrx_cgxe_registry.obj
 0003:00009aca       ?warningGuard@?1??ssGetRootSS@@9@9 0000000180026aca     commqpsktxrx_cgxe_registry.obj
 0003:00009acb       ?warningGuard@?1??ssGetParentSS@@9@9 0000000180026acb     commqpsktxrx_cgxe_registry.obj
 0003:00009ad0       GS_ExceptionRecord         0000000180026ad0     MSVCRT:gs_report.obj
 0003:00009b70       GS_ContextRecord           0000000180026b70     MSVCRT:gs_report.obj
 0003:0000a040       ?__proc_attached@@3HA      0000000180027040     MSVCRT:dll_dllmain.obj
 0003:0000a080       ?is_initialized_as_dll@@3_NA 0000000180027080     MSVCRT:utility.obj
 0003:0000a081       ?module_local_atexit_table_initialized@@3_NA 0000000180027081     MSVCRT:utility.obj
 0003:0000a088       ?module_local_atexit_table@@3U_onexit_table_t@@A 0000000180027088     MSVCRT:utility.obj
 0003:0000a0a0       ?module_local_at_quick_exit_table@@3U_onexit_table_t@@A 00000001800270a0     MSVCRT:utility.obj
